
WINC1500_SERIAL_BRIDGE_EXAMPLE1.elf:     file format elf32-littlearm

Sections:
Idx Name          Size      VMA       LMA       File off  Algn
  0 .text         000041b4  00000000  00000000  00010000  2**2
                  CONTENTS, ALLOC, LOAD, READONLY, CODE
  1 .relocate     00000070  20000000  000041b4  00020000  2**2
                  CONTENTS, ALLOC, LOAD, DATA
  2 .lpram        00000000  30000000  30000000  00020070  2**0
                  CONTENTS
  3 .bss          000005a8  20000070  00004224  00020070  2**2
                  ALLOC
  4 .stack        00002000  20000618  000047cc  00020070  2**0
                  ALLOC
  5 .ARM.attributes 00000028  00000000  00000000  00020070  2**0
                  CONTENTS, READONLY
  6 .comment      00000059  00000000  00000000  00020098  2**0
                  CONTENTS, READONLY
  7 .debug_info   0003d57d  00000000  00000000  000200f1  2**0
                  CONTENTS, READONLY, DEBUGGING
  8 .debug_abbrev 00005f59  00000000  00000000  0005d66e  2**0
                  CONTENTS, READONLY, DEBUGGING
  9 .debug_loc    0000d64d  00000000  00000000  000635c7  2**0
                  CONTENTS, READONLY, DEBUGGING
 10 .debug_aranges 00000ab0  00000000  00000000  00070c14  2**0
                  CONTENTS, READONLY, DEBUGGING
 11 .debug_ranges 00000fc0  00000000  00000000  000716c4  2**0
                  CONTENTS, READONLY, DEBUGGING
 12 .debug_macro  0000ac3f  00000000  00000000  00072684  2**0
                  CONTENTS, READONLY, DEBUGGING
 13 .debug_line   00014e19  00000000  00000000  0007d2c3  2**0
                  CONTENTS, READONLY, DEBUGGING
 14 .debug_str    0009b2b3  00000000  00000000  000920dc  2**0
                  CONTENTS, READONLY, DEBUGGING
 15 .debug_frame  00002380  00000000  00000000  0012d390  2**2
                  CONTENTS, READONLY, DEBUGGING

Disassembly of section .text:

00000000 <exception_table>:
       0:	18 26 00 20 b5 0c 00 00 b1 0c 00 00 b1 0c 00 00     .&. ............
	...
      2c:	b1 0c 00 00 00 00 00 00 00 00 00 00 b1 0c 00 00     ................
      3c:	b1 0c 00 00 b1 0c 00 00 b1 0c 00 00 b1 0c 00 00     ................
      4c:	f9 10 00 00 b1 0c 00 00 b1 0c 00 00 b1 0c 00 00     ................
      5c:	b1 0c 00 00 f1 15 00 00 01 16 00 00 11 16 00 00     ................
      6c:	21 16 00 00 31 16 00 00 41 16 00 00 b1 0c 00 00     !...1...A.......
      7c:	b1 0c 00 00 b1 0c 00 00 b1 0c 00 00 b1 0c 00 00     ................
	...
      94:	b1 0c 00 00 b1 0c 00 00 b1 0c 00 00 00 00 00 00     ................
      a4:	b1 0c 00 00 00 00 00 00 00 00 00 00 00 00 00 00     ................

000000b4 <__do_global_dtors_aux>:
      b4:	b510      	push	{r4, lr}
      b6:	4c06      	ldr	r4, [pc, #24]	; (d0 <__do_global_dtors_aux+0x1c>)
      b8:	7823      	ldrb	r3, [r4, #0]
      ba:	2b00      	cmp	r3, #0
      bc:	d107      	bne.n	ce <__do_global_dtors_aux+0x1a>
      be:	4b05      	ldr	r3, [pc, #20]	; (d4 <__do_global_dtors_aux+0x20>)
      c0:	2b00      	cmp	r3, #0
      c2:	d002      	beq.n	ca <__do_global_dtors_aux+0x16>
      c4:	4804      	ldr	r0, [pc, #16]	; (d8 <__do_global_dtors_aux+0x24>)
      c6:	e000      	b.n	ca <__do_global_dtors_aux+0x16>
      c8:	bf00      	nop
      ca:	2301      	movs	r3, #1
      cc:	7023      	strb	r3, [r4, #0]
      ce:	bd10      	pop	{r4, pc}
      d0:	20000070 	.word	0x20000070
      d4:	00000000 	.word	0x00000000
      d8:	000041b4 	.word	0x000041b4

000000dc <frame_dummy>:
      dc:	4b08      	ldr	r3, [pc, #32]	; (100 <frame_dummy+0x24>)
      de:	b510      	push	{r4, lr}
      e0:	2b00      	cmp	r3, #0
      e2:	d003      	beq.n	ec <frame_dummy+0x10>
      e4:	4907      	ldr	r1, [pc, #28]	; (104 <frame_dummy+0x28>)
      e6:	4808      	ldr	r0, [pc, #32]	; (108 <frame_dummy+0x2c>)
      e8:	e000      	b.n	ec <frame_dummy+0x10>
      ea:	bf00      	nop
      ec:	4807      	ldr	r0, [pc, #28]	; (10c <frame_dummy+0x30>)
      ee:	6803      	ldr	r3, [r0, #0]
      f0:	2b00      	cmp	r3, #0
      f2:	d100      	bne.n	f6 <frame_dummy+0x1a>
      f4:	bd10      	pop	{r4, pc}
      f6:	4b06      	ldr	r3, [pc, #24]	; (110 <frame_dummy+0x34>)
      f8:	2b00      	cmp	r3, #0
      fa:	d0fb      	beq.n	f4 <frame_dummy+0x18>
      fc:	4798      	blx	r3
      fe:	e7f9      	b.n	f4 <frame_dummy+0x18>
     100:	00000000 	.word	0x00000000
     104:	20000074 	.word	0x20000074
     108:	000041b4 	.word	0x000041b4
     10c:	000041b4 	.word	0x000041b4
     110:	00000000 	.word	0x00000000

00000114 <m2m_wifi_download_mode>:
     114:	b510      	push	{r4, lr}
     116:	4b06      	ldr	r3, [pc, #24]	; (130 <m2m_wifi_download_mode+0x1c>)
     118:	4798      	blx	r3
     11a:	1e04      	subs	r4, r0, #0
     11c:	d001      	beq.n	122 <m2m_wifi_download_mode+0xe>
     11e:	0020      	movs	r0, r4
     120:	bd10      	pop	{r4, pc}
     122:	4b04      	ldr	r3, [pc, #16]	; (134 <m2m_wifi_download_mode+0x20>)
     124:	4798      	blx	r3
     126:	2201      	movs	r2, #1
     128:	4b03      	ldr	r3, [pc, #12]	; (138 <m2m_wifi_download_mode+0x24>)
     12a:	701a      	strb	r2, [r3, #0]
     12c:	e7f7      	b.n	11e <m2m_wifi_download_mode+0xa>
     12e:	46c0      	nop			; (mov r8, r8)
     130:	000004b9 	.word	0x000004b9
     134:	0000013d 	.word	0x0000013d
     138:	2000008c 	.word	0x2000008c

0000013c <enable_interrupts>:
     13c:	b500      	push	{lr}
     13e:	b083      	sub	sp, #12
     140:	2300      	movs	r3, #0
     142:	9301      	str	r3, [sp, #4]
     144:	a901      	add	r1, sp, #4
     146:	4811      	ldr	r0, [pc, #68]	; (18c <enable_interrupts+0x50>)
     148:	4b11      	ldr	r3, [pc, #68]	; (190 <enable_interrupts+0x54>)
     14a:	4798      	blx	r3
     14c:	2800      	cmp	r0, #0
     14e:	d001      	beq.n	154 <enable_interrupts+0x18>
     150:	b003      	add	sp, #12
     152:	bd00      	pop	{pc}
     154:	2180      	movs	r1, #128	; 0x80
     156:	0049      	lsls	r1, r1, #1
     158:	9b01      	ldr	r3, [sp, #4]
     15a:	4319      	orrs	r1, r3
     15c:	9101      	str	r1, [sp, #4]
     15e:	480b      	ldr	r0, [pc, #44]	; (18c <enable_interrupts+0x50>)
     160:	4b0c      	ldr	r3, [pc, #48]	; (194 <enable_interrupts+0x58>)
     162:	4798      	blx	r3
     164:	2800      	cmp	r0, #0
     166:	d1f3      	bne.n	150 <enable_interrupts+0x14>
     168:	a901      	add	r1, sp, #4
     16a:	20d0      	movs	r0, #208	; 0xd0
     16c:	0140      	lsls	r0, r0, #5
     16e:	4b08      	ldr	r3, [pc, #32]	; (190 <enable_interrupts+0x54>)
     170:	4798      	blx	r3
     172:	2800      	cmp	r0, #0
     174:	d1ec      	bne.n	150 <enable_interrupts+0x14>
     176:	2180      	movs	r1, #128	; 0x80
     178:	0249      	lsls	r1, r1, #9
     17a:	9b01      	ldr	r3, [sp, #4]
     17c:	4319      	orrs	r1, r3
     17e:	9101      	str	r1, [sp, #4]
     180:	20d0      	movs	r0, #208	; 0xd0
     182:	0140      	lsls	r0, r0, #5
     184:	4b03      	ldr	r3, [pc, #12]	; (194 <enable_interrupts+0x58>)
     186:	4798      	blx	r3
     188:	e7e2      	b.n	150 <enable_interrupts+0x14>
     18a:	46c0      	nop			; (mov r8, r8)
     18c:	00001408 	.word	0x00001408
     190:	000003d1 	.word	0x000003d1
     194:	000003dd 	.word	0x000003dd

00000198 <nmi_get_chipid>:
     198:	b510      	push	{r4, lr}
     19a:	b082      	sub	sp, #8
     19c:	4b28      	ldr	r3, [pc, #160]	; (240 <nmi_get_chipid+0xa8>)
     19e:	681c      	ldr	r4, [r3, #0]
     1a0:	2c00      	cmp	r4, #0
     1a2:	d004      	beq.n	1ae <nmi_get_chipid+0x16>
     1a4:	4b26      	ldr	r3, [pc, #152]	; (240 <nmi_get_chipid+0xa8>)
     1a6:	681c      	ldr	r4, [r3, #0]
     1a8:	0020      	movs	r0, r4
     1aa:	b002      	add	sp, #8
     1ac:	bd10      	pop	{r4, pc}
     1ae:	0019      	movs	r1, r3
     1b0:	2080      	movs	r0, #128	; 0x80
     1b2:	0140      	lsls	r0, r0, #5
     1b4:	4b23      	ldr	r3, [pc, #140]	; (244 <nmi_get_chipid+0xac>)
     1b6:	4798      	blx	r3
     1b8:	2800      	cmp	r0, #0
     1ba:	d003      	beq.n	1c4 <nmi_get_chipid+0x2c>
     1bc:	2200      	movs	r2, #0
     1be:	4b20      	ldr	r3, [pc, #128]	; (240 <nmi_get_chipid+0xa8>)
     1c0:	601a      	str	r2, [r3, #0]
     1c2:	e7f1      	b.n	1a8 <nmi_get_chipid+0x10>
     1c4:	a901      	add	r1, sp, #4
     1c6:	4820      	ldr	r0, [pc, #128]	; (248 <nmi_get_chipid+0xb0>)
     1c8:	4b1e      	ldr	r3, [pc, #120]	; (244 <nmi_get_chipid+0xac>)
     1ca:	4798      	blx	r3
     1cc:	2800      	cmp	r0, #0
     1ce:	d003      	beq.n	1d8 <nmi_get_chipid+0x40>
     1d0:	2200      	movs	r2, #0
     1d2:	4b1b      	ldr	r3, [pc, #108]	; (240 <nmi_get_chipid+0xa8>)
     1d4:	601a      	str	r2, [r3, #0]
     1d6:	e7e7      	b.n	1a8 <nmi_get_chipid+0x10>
     1d8:	4b19      	ldr	r3, [pc, #100]	; (240 <nmi_get_chipid+0xa8>)
     1da:	681b      	ldr	r3, [r3, #0]
     1dc:	4a1b      	ldr	r2, [pc, #108]	; (24c <nmi_get_chipid+0xb4>)
     1de:	4293      	cmp	r3, r2
     1e0:	d00e      	beq.n	200 <nmi_get_chipid+0x68>
     1e2:	4a1b      	ldr	r2, [pc, #108]	; (250 <nmi_get_chipid+0xb8>)
     1e4:	4293      	cmp	r3, r2
     1e6:	d012      	beq.n	20e <nmi_get_chipid+0x76>
     1e8:	4a1a      	ldr	r2, [pc, #104]	; (254 <nmi_get_chipid+0xbc>)
     1ea:	4293      	cmp	r3, r2
     1ec:	d01c      	beq.n	228 <nmi_get_chipid+0x90>
     1ee:	4914      	ldr	r1, [pc, #80]	; (240 <nmi_get_chipid+0xa8>)
     1f0:	4a19      	ldr	r2, [pc, #100]	; (258 <nmi_get_chipid+0xc0>)
     1f2:	680b      	ldr	r3, [r1, #0]
     1f4:	401a      	ands	r2, r3
     1f6:	23a0      	movs	r3, #160	; 0xa0
     1f8:	02db      	lsls	r3, r3, #11
     1fa:	4313      	orrs	r3, r2
     1fc:	600b      	str	r3, [r1, #0]
     1fe:	e7d1      	b.n	1a4 <nmi_get_chipid+0xc>
     200:	9b01      	ldr	r3, [sp, #4]
     202:	2b01      	cmp	r3, #1
     204:	d0f3      	beq.n	1ee <nmi_get_chipid+0x56>
     206:	4a15      	ldr	r2, [pc, #84]	; (25c <nmi_get_chipid+0xc4>)
     208:	4b0d      	ldr	r3, [pc, #52]	; (240 <nmi_get_chipid+0xa8>)
     20a:	601a      	str	r2, [r3, #0]
     20c:	e7ef      	b.n	1ee <nmi_get_chipid+0x56>
     20e:	9b01      	ldr	r3, [sp, #4]
     210:	2b03      	cmp	r3, #3
     212:	d0ec      	beq.n	1ee <nmi_get_chipid+0x56>
     214:	2b04      	cmp	r3, #4
     216:	d003      	beq.n	220 <nmi_get_chipid+0x88>
     218:	4a11      	ldr	r2, [pc, #68]	; (260 <nmi_get_chipid+0xc8>)
     21a:	4b09      	ldr	r3, [pc, #36]	; (240 <nmi_get_chipid+0xa8>)
     21c:	601a      	str	r2, [r3, #0]
     21e:	e7e6      	b.n	1ee <nmi_get_chipid+0x56>
     220:	4a10      	ldr	r2, [pc, #64]	; (264 <nmi_get_chipid+0xcc>)
     222:	4b07      	ldr	r3, [pc, #28]	; (240 <nmi_get_chipid+0xa8>)
     224:	601a      	str	r2, [r3, #0]
     226:	e7e2      	b.n	1ee <nmi_get_chipid+0x56>
     228:	4905      	ldr	r1, [pc, #20]	; (240 <nmi_get_chipid+0xa8>)
     22a:	20ec      	movs	r0, #236	; 0xec
     22c:	0380      	lsls	r0, r0, #14
     22e:	4b05      	ldr	r3, [pc, #20]	; (244 <nmi_get_chipid+0xac>)
     230:	4798      	blx	r3
     232:	2800      	cmp	r0, #0
     234:	d0db      	beq.n	1ee <nmi_get_chipid+0x56>
     236:	2200      	movs	r2, #0
     238:	4b01      	ldr	r3, [pc, #4]	; (240 <nmi_get_chipid+0xa8>)
     23a:	601a      	str	r2, [r3, #0]
     23c:	e7b4      	b.n	1a8 <nmi_get_chipid+0x10>
     23e:	46c0      	nop			; (mov r8, r8)
     240:	20000090 	.word	0x20000090
     244:	000003d1 	.word	0x000003d1
     248:	000013f4 	.word	0x000013f4
     24c:	001002a0 	.word	0x001002a0
     250:	001002b0 	.word	0x001002b0
     254:	001000f0 	.word	0x001000f0
     258:	fff0ffff 	.word	0xfff0ffff
     25c:	001002a1 	.word	0x001002a1
     260:	001002b2 	.word	0x001002b2
     264:	001002b1 	.word	0x001002b1

00000268 <chip_wake>:
     268:	b5f0      	push	{r4, r5, r6, r7, lr}
     26a:	b083      	sub	sp, #12
     26c:	2300      	movs	r3, #0
     26e:	9301      	str	r3, [sp, #4]
     270:	9300      	str	r3, [sp, #0]
     272:	a901      	add	r1, sp, #4
     274:	200b      	movs	r0, #11
     276:	4b1b      	ldr	r3, [pc, #108]	; (2e4 <chip_wake+0x7c>)
     278:	4798      	blx	r3
     27a:	1e04      	subs	r4, r0, #0
     27c:	d124      	bne.n	2c8 <chip_wake+0x60>
     27e:	9901      	ldr	r1, [sp, #4]
     280:	07cb      	lsls	r3, r1, #31
     282:	d406      	bmi.n	292 <chip_wake+0x2a>
     284:	2301      	movs	r3, #1
     286:	4319      	orrs	r1, r3
     288:	200b      	movs	r0, #11
     28a:	4b17      	ldr	r3, [pc, #92]	; (2e8 <chip_wake+0x80>)
     28c:	4798      	blx	r3
     28e:	1e04      	subs	r4, r0, #0
     290:	d11a      	bne.n	2c8 <chip_wake+0x60>
     292:	a901      	add	r1, sp, #4
     294:	2001      	movs	r0, #1
     296:	4b13      	ldr	r3, [pc, #76]	; (2e4 <chip_wake+0x7c>)
     298:	4798      	blx	r3
     29a:	1e04      	subs	r4, r0, #0
     29c:	d114      	bne.n	2c8 <chip_wake+0x60>
     29e:	9901      	ldr	r1, [sp, #4]
     2a0:	078b      	lsls	r3, r1, #30
     2a2:	d514      	bpl.n	2ce <chip_wake+0x66>
     2a4:	2505      	movs	r5, #5
     2a6:	4f0f      	ldr	r7, [pc, #60]	; (2e4 <chip_wake+0x7c>)
     2a8:	4e10      	ldr	r6, [pc, #64]	; (2ec <chip_wake+0x84>)
     2aa:	4669      	mov	r1, sp
     2ac:	200f      	movs	r0, #15
     2ae:	47b8      	blx	r7
     2b0:	1e04      	subs	r4, r0, #0
     2b2:	d109      	bne.n	2c8 <chip_wake+0x60>
     2b4:	9b00      	ldr	r3, [sp, #0]
     2b6:	075b      	lsls	r3, r3, #29
     2b8:	d411      	bmi.n	2de <chip_wake+0x76>
     2ba:	2002      	movs	r0, #2
     2bc:	47b0      	blx	r6
     2be:	3d01      	subs	r5, #1
     2c0:	2d00      	cmp	r5, #0
     2c2:	d1f2      	bne.n	2aa <chip_wake+0x42>
     2c4:	2404      	movs	r4, #4
     2c6:	4264      	negs	r4, r4
     2c8:	0020      	movs	r0, r4
     2ca:	b003      	add	sp, #12
     2cc:	bdf0      	pop	{r4, r5, r6, r7, pc}
     2ce:	2302      	movs	r3, #2
     2d0:	4319      	orrs	r1, r3
     2d2:	2001      	movs	r0, #1
     2d4:	4b04      	ldr	r3, [pc, #16]	; (2e8 <chip_wake+0x80>)
     2d6:	4798      	blx	r3
     2d8:	1e04      	subs	r4, r0, #0
     2da:	d0e3      	beq.n	2a4 <chip_wake+0x3c>
     2dc:	e7f4      	b.n	2c8 <chip_wake+0x60>
     2de:	4b04      	ldr	r3, [pc, #16]	; (2f0 <chip_wake+0x88>)
     2e0:	4798      	blx	r3
     2e2:	e7f1      	b.n	2c8 <chip_wake+0x60>
     2e4:	000003d1 	.word	0x000003d1
     2e8:	000003dd 	.word	0x000003dd
     2ec:	00000db9 	.word	0x00000db9
     2f0:	000003b9 	.word	0x000003b9

000002f4 <cpu_halt>:
     2f4:	b570      	push	{r4, r5, r6, lr}
     2f6:	b082      	sub	sp, #8
     2f8:	2300      	movs	r3, #0
     2fa:	9301      	str	r3, [sp, #4]
     2fc:	4e15      	ldr	r6, [pc, #84]	; (354 <cpu_halt+0x60>)
     2fe:	a901      	add	r1, sp, #4
     300:	0030      	movs	r0, r6
     302:	4d15      	ldr	r5, [pc, #84]	; (358 <cpu_halt+0x64>)
     304:	47a8      	blx	r5
     306:	0004      	movs	r4, r0
     308:	2101      	movs	r1, #1
     30a:	9b01      	ldr	r3, [sp, #4]
     30c:	4319      	orrs	r1, r3
     30e:	9101      	str	r1, [sp, #4]
     310:	0030      	movs	r0, r6
     312:	4b12      	ldr	r3, [pc, #72]	; (35c <cpu_halt+0x68>)
     314:	4798      	blx	r3
     316:	1904      	adds	r4, r0, r4
     318:	b2e4      	uxtb	r4, r4
     31a:	a901      	add	r1, sp, #4
     31c:	20a0      	movs	r0, #160	; 0xa0
     31e:	0140      	lsls	r0, r0, #5
     320:	47a8      	blx	r5
     322:	1824      	adds	r4, r4, r0
     324:	b2e4      	uxtb	r4, r4
     326:	9901      	ldr	r1, [sp, #4]
     328:	054b      	lsls	r3, r1, #21
     32a:	d402      	bmi.n	332 <cpu_halt+0x3e>
     32c:	b260      	sxtb	r0, r4
     32e:	b002      	add	sp, #8
     330:	bd70      	pop	{r4, r5, r6, pc}
     332:	4b0b      	ldr	r3, [pc, #44]	; (360 <cpu_halt+0x6c>)
     334:	4019      	ands	r1, r3
     336:	9101      	str	r1, [sp, #4]
     338:	26a0      	movs	r6, #160	; 0xa0
     33a:	0176      	lsls	r6, r6, #5
     33c:	0030      	movs	r0, r6
     33e:	4b07      	ldr	r3, [pc, #28]	; (35c <cpu_halt+0x68>)
     340:	4798      	blx	r3
     342:	0005      	movs	r5, r0
     344:	a901      	add	r1, sp, #4
     346:	0030      	movs	r0, r6
     348:	4b03      	ldr	r3, [pc, #12]	; (358 <cpu_halt+0x64>)
     34a:	4798      	blx	r3
     34c:	1828      	adds	r0, r5, r0
     34e:	1820      	adds	r0, r4, r0
     350:	b240      	sxtb	r0, r0
     352:	e7ec      	b.n	32e <cpu_halt+0x3a>
     354:	00001118 	.word	0x00001118
     358:	000003d1 	.word	0x000003d1
     35c:	000003dd 	.word	0x000003dd
     360:	fffffbff 	.word	0xfffffbff

00000364 <chip_reset>:
     364:	b510      	push	{r4, lr}
     366:	2100      	movs	r1, #0
     368:	20a0      	movs	r0, #160	; 0xa0
     36a:	0140      	lsls	r0, r0, #5
     36c:	4b03      	ldr	r3, [pc, #12]	; (37c <chip_reset+0x18>)
     36e:	4798      	blx	r3
     370:	0004      	movs	r4, r0
     372:	2032      	movs	r0, #50	; 0x32
     374:	4b02      	ldr	r3, [pc, #8]	; (380 <chip_reset+0x1c>)
     376:	4798      	blx	r3
     378:	0020      	movs	r0, r4
     37a:	bd10      	pop	{r4, pc}
     37c:	000003dd 	.word	0x000003dd
     380:	00000db9 	.word	0x00000db9

00000384 <chip_reset_and_cpu_halt>:
     384:	b510      	push	{r4, lr}
     386:	4b06      	ldr	r3, [pc, #24]	; (3a0 <chip_reset_and_cpu_halt+0x1c>)
     388:	4798      	blx	r3
     38a:	2800      	cmp	r0, #0
     38c:	d000      	beq.n	390 <chip_reset_and_cpu_halt+0xc>
     38e:	bd10      	pop	{r4, pc}
     390:	4b04      	ldr	r3, [pc, #16]	; (3a4 <chip_reset_and_cpu_halt+0x20>)
     392:	4798      	blx	r3
     394:	2800      	cmp	r0, #0
     396:	d1fa      	bne.n	38e <chip_reset_and_cpu_halt+0xa>
     398:	4b03      	ldr	r3, [pc, #12]	; (3a8 <chip_reset_and_cpu_halt+0x24>)
     39a:	4798      	blx	r3
     39c:	e7f7      	b.n	38e <chip_reset_and_cpu_halt+0xa>
     39e:	46c0      	nop			; (mov r8, r8)
     3a0:	00000269 	.word	0x00000269
     3a4:	00000365 	.word	0x00000365
     3a8:	000002f5 	.word	0x000002f5

000003ac <nm_bus_iface_init>:
     3ac:	b510      	push	{r4, lr}
     3ae:	4b01      	ldr	r3, [pc, #4]	; (3b4 <nm_bus_iface_init+0x8>)
     3b0:	4798      	blx	r3
     3b2:	bd10      	pop	{r4, pc}
     3b4:	00000e69 	.word	0x00000e69

000003b8 <nm_bus_reset>:
     3b8:	b510      	push	{r4, lr}
     3ba:	4b01      	ldr	r3, [pc, #4]	; (3c0 <nm_bus_reset+0x8>)
     3bc:	4798      	blx	r3
     3be:	bd10      	pop	{r4, pc}
     3c0:	00000939 	.word	0x00000939

000003c4 <nm_read_reg>:
     3c4:	b510      	push	{r4, lr}
     3c6:	4b01      	ldr	r3, [pc, #4]	; (3cc <nm_read_reg+0x8>)
     3c8:	4798      	blx	r3
     3ca:	bd10      	pop	{r4, pc}
     3cc:	00000961 	.word	0x00000961

000003d0 <nm_read_reg_with_ret>:
     3d0:	b510      	push	{r4, lr}
     3d2:	4b01      	ldr	r3, [pc, #4]	; (3d8 <nm_read_reg_with_ret+0x8>)
     3d4:	4798      	blx	r3
     3d6:	bd10      	pop	{r4, pc}
     3d8:	00000975 	.word	0x00000975

000003dc <nm_write_reg>:
     3dc:	b510      	push	{r4, lr}
     3de:	4b01      	ldr	r3, [pc, #4]	; (3e4 <nm_write_reg+0x8>)
     3e0:	4798      	blx	r3
     3e2:	bd10      	pop	{r4, pc}
     3e4:	0000098d 	.word	0x0000098d

000003e8 <nm_read_block>:
     3e8:	b5f0      	push	{r4, r5, r6, r7, lr}
     3ea:	46d6      	mov	lr, sl
     3ec:	464f      	mov	r7, r9
     3ee:	4646      	mov	r6, r8
     3f0:	b5c0      	push	{r6, r7, lr}
     3f2:	b082      	sub	sp, #8
     3f4:	4680      	mov	r8, r0
     3f6:	4689      	mov	r9, r1
     3f8:	0015      	movs	r5, r2
     3fa:	4b13      	ldr	r3, [pc, #76]	; (448 <nm_read_block+0x60>)
     3fc:	881f      	ldrh	r7, [r3, #0]
     3fe:	3f08      	subs	r7, #8
     400:	b2bb      	uxth	r3, r7
     402:	9301      	str	r3, [sp, #4]
     404:	001e      	movs	r6, r3
     406:	0004      	movs	r4, r0
     408:	429a      	cmp	r2, r3
     40a:	d91a      	bls.n	442 <nm_read_block+0x5a>
     40c:	4b0f      	ldr	r3, [pc, #60]	; (44c <nm_read_block+0x64>)
     40e:	469a      	mov	sl, r3
     410:	1a37      	subs	r7, r6, r0
     412:	4643      	mov	r3, r8
     414:	1ae1      	subs	r1, r4, r3
     416:	4449      	add	r1, r9
     418:	9a01      	ldr	r2, [sp, #4]
     41a:	0020      	movs	r0, r4
     41c:	47d0      	blx	sl
     41e:	2800      	cmp	r0, #0
     420:	d109      	bne.n	436 <nm_read_block+0x4e>
     422:	1bad      	subs	r5, r5, r6
     424:	1939      	adds	r1, r7, r4
     426:	19a4      	adds	r4, r4, r6
     428:	42b5      	cmp	r5, r6
     42a:	d8f2      	bhi.n	412 <nm_read_block+0x2a>
     42c:	b2aa      	uxth	r2, r5
     42e:	4449      	add	r1, r9
     430:	0020      	movs	r0, r4
     432:	4b06      	ldr	r3, [pc, #24]	; (44c <nm_read_block+0x64>)
     434:	4798      	blx	r3
     436:	b002      	add	sp, #8
     438:	bc1c      	pop	{r2, r3, r4}
     43a:	4690      	mov	r8, r2
     43c:	4699      	mov	r9, r3
     43e:	46a2      	mov	sl, r4
     440:	bdf0      	pop	{r4, r5, r6, r7, pc}
     442:	2100      	movs	r1, #0
     444:	e7f2      	b.n	42c <nm_read_block+0x44>
     446:	46c0      	nop			; (mov r8, r8)
     448:	20000008 	.word	0x20000008
     44c:	00000a41 	.word	0x00000a41

00000450 <nm_write_block>:
     450:	b5f0      	push	{r4, r5, r6, r7, lr}
     452:	46d6      	mov	lr, sl
     454:	464f      	mov	r7, r9
     456:	4646      	mov	r6, r8
     458:	b5c0      	push	{r6, r7, lr}
     45a:	b082      	sub	sp, #8
     45c:	4680      	mov	r8, r0
     45e:	4689      	mov	r9, r1
     460:	0015      	movs	r5, r2
     462:	4b13      	ldr	r3, [pc, #76]	; (4b0 <nm_write_block+0x60>)
     464:	881f      	ldrh	r7, [r3, #0]
     466:	3f08      	subs	r7, #8
     468:	b2bb      	uxth	r3, r7
     46a:	9301      	str	r3, [sp, #4]
     46c:	001e      	movs	r6, r3
     46e:	0004      	movs	r4, r0
     470:	429a      	cmp	r2, r3
     472:	d91a      	bls.n	4aa <nm_write_block+0x5a>
     474:	4b0f      	ldr	r3, [pc, #60]	; (4b4 <nm_write_block+0x64>)
     476:	469a      	mov	sl, r3
     478:	1a37      	subs	r7, r6, r0
     47a:	4643      	mov	r3, r8
     47c:	1ae1      	subs	r1, r4, r3
     47e:	4449      	add	r1, r9
     480:	9a01      	ldr	r2, [sp, #4]
     482:	0020      	movs	r0, r4
     484:	47d0      	blx	sl
     486:	2800      	cmp	r0, #0
     488:	d109      	bne.n	49e <nm_write_block+0x4e>
     48a:	1bad      	subs	r5, r5, r6
     48c:	1939      	adds	r1, r7, r4
     48e:	19a4      	adds	r4, r4, r6
     490:	42b5      	cmp	r5, r6
     492:	d8f2      	bhi.n	47a <nm_write_block+0x2a>
     494:	b2aa      	uxth	r2, r5
     496:	4449      	add	r1, r9
     498:	0020      	movs	r0, r4
     49a:	4b06      	ldr	r3, [pc, #24]	; (4b4 <nm_write_block+0x64>)
     49c:	4798      	blx	r3
     49e:	b002      	add	sp, #8
     4a0:	bc1c      	pop	{r2, r3, r4}
     4a2:	4690      	mov	r8, r2
     4a4:	4699      	mov	r9, r3
     4a6:	46a2      	mov	sl, r4
     4a8:	bdf0      	pop	{r4, r5, r6, r7, pc}
     4aa:	2100      	movs	r1, #0
     4ac:	e7f2      	b.n	494 <nm_write_block+0x44>
     4ae:	46c0      	nop			; (mov r8, r8)
     4b0:	20000008 	.word	0x20000008
     4b4:	00000b01 	.word	0x00000b01

000004b8 <nm_drv_init_download_mode>:
     4b8:	b510      	push	{r4, lr}
     4ba:	2000      	movs	r0, #0
     4bc:	4b09      	ldr	r3, [pc, #36]	; (4e4 <nm_drv_init_download_mode+0x2c>)
     4be:	4798      	blx	r3
     4c0:	1e04      	subs	r4, r0, #0
     4c2:	d001      	beq.n	4c8 <nm_drv_init_download_mode+0x10>
     4c4:	0020      	movs	r0, r4
     4c6:	bd10      	pop	{r4, pc}
     4c8:	4b07      	ldr	r3, [pc, #28]	; (4e8 <nm_drv_init_download_mode+0x30>)
     4ca:	4798      	blx	r3
     4cc:	0d00      	lsrs	r0, r0, #20
     4ce:	2803      	cmp	r0, #3
     4d0:	d001      	beq.n	4d6 <nm_drv_init_download_mode+0x1e>
     4d2:	4b06      	ldr	r3, [pc, #24]	; (4ec <nm_drv_init_download_mode+0x34>)
     4d4:	4798      	blx	r3
     4d6:	4b06      	ldr	r3, [pc, #24]	; (4f0 <nm_drv_init_download_mode+0x38>)
     4d8:	4798      	blx	r3
     4da:	2100      	movs	r1, #0
     4dc:	4805      	ldr	r0, [pc, #20]	; (4f4 <nm_drv_init_download_mode+0x3c>)
     4de:	4b06      	ldr	r3, [pc, #24]	; (4f8 <nm_drv_init_download_mode+0x40>)
     4e0:	4798      	blx	r3
     4e2:	e7ef      	b.n	4c4 <nm_drv_init_download_mode+0xc>
     4e4:	000003ad 	.word	0x000003ad
     4e8:	00000199 	.word	0x00000199
     4ec:	00000385 	.word	0x00000385
     4f0:	000009a5 	.word	0x000009a5
     4f4:	00020300 	.word	0x00020300
     4f8:	000003dd 	.word	0x000003dd

000004fc <nmi_spi_write>:
     4fc:	b500      	push	{lr}
     4fe:	b085      	sub	sp, #20
     500:	ab01      	add	r3, sp, #4
     502:	9001      	str	r0, [sp, #4]
     504:	2200      	movs	r2, #0
     506:	9202      	str	r2, [sp, #8]
     508:	8119      	strh	r1, [r3, #8]
     50a:	0019      	movs	r1, r3
     50c:	2003      	movs	r0, #3
     50e:	4b02      	ldr	r3, [pc, #8]	; (518 <nmi_spi_write+0x1c>)
     510:	4798      	blx	r3
     512:	b005      	add	sp, #20
     514:	bd00      	pop	{pc}
     516:	46c0      	nop			; (mov r8, r8)
     518:	00000f6d 	.word	0x00000f6d

0000051c <spi_cmd>:
     51c:	b570      	push	{r4, r5, r6, lr}
     51e:	b084      	sub	sp, #16
     520:	ac08      	add	r4, sp, #32
     522:	7825      	ldrb	r5, [r4, #0]
     524:	ac01      	add	r4, sp, #4
     526:	7020      	strb	r0, [r4, #0]
     528:	303f      	adds	r0, #63	; 0x3f
     52a:	b2c4      	uxtb	r4, r0
     52c:	2c0e      	cmp	r4, #14
     52e:	d876      	bhi.n	61e <spi_cmd+0x102>
     530:	00a0      	lsls	r0, r4, #2
     532:	4c48      	ldr	r4, [pc, #288]	; (654 <spi_cmd+0x138>)
     534:	5820      	ldr	r0, [r4, r0]
     536:	4687      	mov	pc, r0
     538:	ab01      	add	r3, sp, #4
     53a:	0c0a      	lsrs	r2, r1, #16
     53c:	705a      	strb	r2, [r3, #1]
     53e:	0a0a      	lsrs	r2, r1, #8
     540:	709a      	strb	r2, [r3, #2]
     542:	70d9      	strb	r1, [r3, #3]
     544:	2105      	movs	r1, #5
     546:	4b44      	ldr	r3, [pc, #272]	; (658 <spi_cmd+0x13c>)
     548:	781b      	ldrb	r3, [r3, #0]
     54a:	2b00      	cmp	r3, #0
     54c:	d069      	beq.n	622 <spi_cmd+0x106>
     54e:	3901      	subs	r1, #1
     550:	b2c9      	uxtb	r1, r1
     552:	e075      	b.n	640 <spi_cmd+0x124>
     554:	0a0b      	lsrs	r3, r1, #8
     556:	b2db      	uxtb	r3, r3
     558:	2d00      	cmp	r5, #0
     55a:	d107      	bne.n	56c <spi_cmd+0x50>
     55c:	aa01      	add	r2, sp, #4
     55e:	7053      	strb	r3, [r2, #1]
     560:	ab01      	add	r3, sp, #4
     562:	7099      	strb	r1, [r3, #2]
     564:	2200      	movs	r2, #0
     566:	70da      	strb	r2, [r3, #3]
     568:	2105      	movs	r1, #5
     56a:	e7ec      	b.n	546 <spi_cmd+0x2a>
     56c:	2280      	movs	r2, #128	; 0x80
     56e:	4252      	negs	r2, r2
     570:	4313      	orrs	r3, r2
     572:	aa01      	add	r2, sp, #4
     574:	7053      	strb	r3, [r2, #1]
     576:	e7f3      	b.n	560 <spi_cmd+0x44>
     578:	ab01      	add	r3, sp, #4
     57a:	2200      	movs	r2, #0
     57c:	705a      	strb	r2, [r3, #1]
     57e:	709a      	strb	r2, [r3, #2]
     580:	70da      	strb	r2, [r3, #3]
     582:	2105      	movs	r1, #5
     584:	e7df      	b.n	546 <spi_cmd+0x2a>
     586:	ab01      	add	r3, sp, #4
     588:	2200      	movs	r2, #0
     58a:	705a      	strb	r2, [r3, #1]
     58c:	709a      	strb	r2, [r3, #2]
     58e:	70da      	strb	r2, [r3, #3]
     590:	2105      	movs	r1, #5
     592:	e7d8      	b.n	546 <spi_cmd+0x2a>
     594:	ab01      	add	r3, sp, #4
     596:	22ff      	movs	r2, #255	; 0xff
     598:	705a      	strb	r2, [r3, #1]
     59a:	709a      	strb	r2, [r3, #2]
     59c:	70da      	strb	r2, [r3, #3]
     59e:	2105      	movs	r1, #5
     5a0:	e7d1      	b.n	546 <spi_cmd+0x2a>
     5a2:	aa01      	add	r2, sp, #4
     5a4:	0c08      	lsrs	r0, r1, #16
     5a6:	7050      	strb	r0, [r2, #1]
     5a8:	0a08      	lsrs	r0, r1, #8
     5aa:	7090      	strb	r0, [r2, #2]
     5ac:	70d1      	strb	r1, [r2, #3]
     5ae:	0a19      	lsrs	r1, r3, #8
     5b0:	7111      	strb	r1, [r2, #4]
     5b2:	7153      	strb	r3, [r2, #5]
     5b4:	2107      	movs	r1, #7
     5b6:	e7c6      	b.n	546 <spi_cmd+0x2a>
     5b8:	aa01      	add	r2, sp, #4
     5ba:	0c08      	lsrs	r0, r1, #16
     5bc:	7050      	strb	r0, [r2, #1]
     5be:	0a08      	lsrs	r0, r1, #8
     5c0:	7090      	strb	r0, [r2, #2]
     5c2:	70d1      	strb	r1, [r2, #3]
     5c4:	0c19      	lsrs	r1, r3, #16
     5c6:	7111      	strb	r1, [r2, #4]
     5c8:	0a19      	lsrs	r1, r3, #8
     5ca:	7151      	strb	r1, [r2, #5]
     5cc:	7193      	strb	r3, [r2, #6]
     5ce:	2108      	movs	r1, #8
     5d0:	e7b9      	b.n	546 <spi_cmd+0x2a>
     5d2:	0a0b      	lsrs	r3, r1, #8
     5d4:	b2db      	uxtb	r3, r3
     5d6:	2d00      	cmp	r5, #0
     5d8:	d10c      	bne.n	5f4 <spi_cmd+0xd8>
     5da:	a801      	add	r0, sp, #4
     5dc:	7043      	strb	r3, [r0, #1]
     5de:	ab01      	add	r3, sp, #4
     5e0:	7099      	strb	r1, [r3, #2]
     5e2:	0e11      	lsrs	r1, r2, #24
     5e4:	70d9      	strb	r1, [r3, #3]
     5e6:	0c11      	lsrs	r1, r2, #16
     5e8:	7119      	strb	r1, [r3, #4]
     5ea:	0a11      	lsrs	r1, r2, #8
     5ec:	7159      	strb	r1, [r3, #5]
     5ee:	719a      	strb	r2, [r3, #6]
     5f0:	2108      	movs	r1, #8
     5f2:	e7a8      	b.n	546 <spi_cmd+0x2a>
     5f4:	2080      	movs	r0, #128	; 0x80
     5f6:	4240      	negs	r0, r0
     5f8:	4303      	orrs	r3, r0
     5fa:	a801      	add	r0, sp, #4
     5fc:	7043      	strb	r3, [r0, #1]
     5fe:	e7ee      	b.n	5de <spi_cmd+0xc2>
     600:	ab01      	add	r3, sp, #4
     602:	0c08      	lsrs	r0, r1, #16
     604:	7058      	strb	r0, [r3, #1]
     606:	0a08      	lsrs	r0, r1, #8
     608:	7098      	strb	r0, [r3, #2]
     60a:	70d9      	strb	r1, [r3, #3]
     60c:	0e11      	lsrs	r1, r2, #24
     60e:	7119      	strb	r1, [r3, #4]
     610:	0c11      	lsrs	r1, r2, #16
     612:	7159      	strb	r1, [r3, #5]
     614:	0a11      	lsrs	r1, r2, #8
     616:	7199      	strb	r1, [r3, #6]
     618:	71da      	strb	r2, [r3, #7]
     61a:	2109      	movs	r1, #9
     61c:	e793      	b.n	546 <spi_cmd+0x2a>
     61e:	2000      	movs	r0, #0
     620:	e015      	b.n	64e <spi_cmd+0x132>
     622:	1e4e      	subs	r6, r1, #1
     624:	aa01      	add	r2, sp, #4
     626:	1995      	adds	r5, r2, r6
     628:	237f      	movs	r3, #127	; 0x7f
     62a:	4c0c      	ldr	r4, [pc, #48]	; (65c <spi_cmd+0x140>)
     62c:	005b      	lsls	r3, r3, #1
     62e:	7810      	ldrb	r0, [r2, #0]
     630:	4043      	eors	r3, r0
     632:	5ce3      	ldrb	r3, [r4, r3]
     634:	3201      	adds	r2, #1
     636:	42aa      	cmp	r2, r5
     638:	d1f8      	bne.n	62c <spi_cmd+0x110>
     63a:	005b      	lsls	r3, r3, #1
     63c:	aa01      	add	r2, sp, #4
     63e:	5593      	strb	r3, [r2, r6]
     640:	b289      	uxth	r1, r1
     642:	a801      	add	r0, sp, #4
     644:	4b06      	ldr	r3, [pc, #24]	; (660 <spi_cmd+0x144>)
     646:	4798      	blx	r3
     648:	4243      	negs	r3, r0
     64a:	4158      	adcs	r0, r3
     64c:	b240      	sxtb	r0, r0
     64e:	b004      	add	sp, #16
     650:	bd70      	pop	{r4, r5, r6, pc}
     652:	46c0      	nop			; (mov r8, r8)
     654:	00003efc 	.word	0x00003efc
     658:	20000094 	.word	0x20000094
     65c:	00003f3c 	.word	0x00003f3c
     660:	000004fd 	.word	0x000004fd

00000664 <nmi_spi_read>:
     664:	b500      	push	{lr}
     666:	b085      	sub	sp, #20
     668:	ab01      	add	r3, sp, #4
     66a:	2200      	movs	r2, #0
     66c:	9201      	str	r2, [sp, #4]
     66e:	9002      	str	r0, [sp, #8]
     670:	8119      	strh	r1, [r3, #8]
     672:	0019      	movs	r1, r3
     674:	2003      	movs	r0, #3
     676:	4b02      	ldr	r3, [pc, #8]	; (680 <nmi_spi_read+0x1c>)
     678:	4798      	blx	r3
     67a:	b005      	add	sp, #20
     67c:	bd00      	pop	{pc}
     67e:	46c0      	nop			; (mov r8, r8)
     680:	00000f6d 	.word	0x00000f6d

00000684 <spi_cmd_rsp>:
     684:	b5f0      	push	{r4, r5, r6, r7, lr}
     686:	46c6      	mov	lr, r8
     688:	b500      	push	{lr}
     68a:	b082      	sub	sp, #8
     68c:	0007      	movs	r7, r0
     68e:	28cf      	cmp	r0, #207	; 0xcf
     690:	d02b      	beq.n	6ea <spi_cmd_rsp+0x66>
     692:	0003      	movs	r3, r0
     694:	333b      	adds	r3, #59	; 0x3b
     696:	b2db      	uxtb	r3, r3
     698:	2b01      	cmp	r3, #1
     69a:	d926      	bls.n	6ea <spi_cmd_rsp+0x66>
     69c:	240b      	movs	r4, #11
     69e:	466b      	mov	r3, sp
     6a0:	1dde      	adds	r6, r3, #7
     6a2:	4b19      	ldr	r3, [pc, #100]	; (708 <spi_cmd_rsp+0x84>)
     6a4:	4698      	mov	r8, r3
     6a6:	2101      	movs	r1, #1
     6a8:	0030      	movs	r0, r6
     6aa:	47c0      	blx	r8
     6ac:	1e05      	subs	r5, r0, #0
     6ae:	d127      	bne.n	700 <spi_cmd_rsp+0x7c>
     6b0:	7833      	ldrb	r3, [r6, #0]
     6b2:	42bb      	cmp	r3, r7
     6b4:	d022      	beq.n	6fc <spi_cmd_rsp+0x78>
     6b6:	3c01      	subs	r4, #1
     6b8:	b2e4      	uxtb	r4, r4
     6ba:	2c00      	cmp	r4, #0
     6bc:	d1f3      	bne.n	6a6 <spi_cmd_rsp+0x22>
     6be:	340b      	adds	r4, #11
     6c0:	466b      	mov	r3, sp
     6c2:	1dde      	adds	r6, r3, #7
     6c4:	4f10      	ldr	r7, [pc, #64]	; (708 <spi_cmd_rsp+0x84>)
     6c6:	2101      	movs	r1, #1
     6c8:	0030      	movs	r0, r6
     6ca:	47b8      	blx	r7
     6cc:	2800      	cmp	r0, #0
     6ce:	d107      	bne.n	6e0 <spi_cmd_rsp+0x5c>
     6d0:	7833      	ldrb	r3, [r6, #0]
     6d2:	2b00      	cmp	r3, #0
     6d4:	d016      	beq.n	704 <spi_cmd_rsp+0x80>
     6d6:	3c01      	subs	r4, #1
     6d8:	b2e4      	uxtb	r4, r4
     6da:	2c00      	cmp	r4, #0
     6dc:	d1f3      	bne.n	6c6 <spi_cmd_rsp+0x42>
     6de:	2501      	movs	r5, #1
     6e0:	0028      	movs	r0, r5
     6e2:	b002      	add	sp, #8
     6e4:	bc04      	pop	{r2}
     6e6:	4690      	mov	r8, r2
     6e8:	bdf0      	pop	{r4, r5, r6, r7, pc}
     6ea:	2101      	movs	r1, #1
     6ec:	466b      	mov	r3, sp
     6ee:	1dd8      	adds	r0, r3, #7
     6f0:	4b05      	ldr	r3, [pc, #20]	; (708 <spi_cmd_rsp+0x84>)
     6f2:	4798      	blx	r3
     6f4:	2500      	movs	r5, #0
     6f6:	2800      	cmp	r0, #0
     6f8:	d0d0      	beq.n	69c <spi_cmd_rsp+0x18>
     6fa:	e7f1      	b.n	6e0 <spi_cmd_rsp+0x5c>
     6fc:	240b      	movs	r4, #11
     6fe:	e7df      	b.n	6c0 <spi_cmd_rsp+0x3c>
     700:	2500      	movs	r5, #0
     702:	e7ed      	b.n	6e0 <spi_cmd_rsp+0x5c>
     704:	2501      	movs	r5, #1
     706:	e7eb      	b.n	6e0 <spi_cmd_rsp+0x5c>
     708:	00000665 	.word	0x00000665

0000070c <spi_data_read>:
     70c:	b5f0      	push	{r4, r5, r6, r7, lr}
     70e:	46de      	mov	lr, fp
     710:	4657      	mov	r7, sl
     712:	464e      	mov	r6, r9
     714:	4645      	mov	r5, r8
     716:	b5e0      	push	{r5, r6, r7, lr}
     718:	b087      	sub	sp, #28
     71a:	9001      	str	r0, [sp, #4]
     71c:	4689      	mov	r9, r1
     71e:	9202      	str	r2, [sp, #8]
     720:	2300      	movs	r3, #0
     722:	469a      	mov	sl, r3
     724:	2380      	movs	r3, #128	; 0x80
     726:	019b      	lsls	r3, r3, #6
     728:	469b      	mov	fp, r3
     72a:	466a      	mov	r2, sp
     72c:	81d3      	strh	r3, [r2, #14]
     72e:	4b24      	ldr	r3, [pc, #144]	; (7c0 <spi_data_read+0xb4>)
     730:	4698      	mov	r8, r3
     732:	e01a      	b.n	76a <spi_data_read+0x5e>
     734:	2c00      	cmp	r4, #0
     736:	dd2e      	ble.n	796 <spi_data_read+0x8a>
     738:	9b01      	ldr	r3, [sp, #4]
     73a:	4453      	add	r3, sl
     73c:	0018      	movs	r0, r3
     73e:	0039      	movs	r1, r7
     740:	4b1f      	ldr	r3, [pc, #124]	; (7c0 <spi_data_read+0xb4>)
     742:	4798      	blx	r3
     744:	1e04      	subs	r4, r0, #0
     746:	d126      	bne.n	796 <spi_data_read+0x8a>
     748:	9b02      	ldr	r3, [sp, #8]
     74a:	2b00      	cmp	r3, #0
     74c:	d103      	bne.n	756 <spi_data_read+0x4a>
     74e:	4b1d      	ldr	r3, [pc, #116]	; (7c4 <spi_data_read+0xb8>)
     750:	781b      	ldrb	r3, [r3, #0]
     752:	2b00      	cmp	r3, #0
     754:	d027      	beq.n	7a6 <spi_data_read+0x9a>
     756:	4653      	mov	r3, sl
     758:	18fb      	adds	r3, r7, r3
     75a:	b21b      	sxth	r3, r3
     75c:	469a      	mov	sl, r3
     75e:	464b      	mov	r3, r9
     760:	1bdf      	subs	r7, r3, r7
     762:	b2bb      	uxth	r3, r7
     764:	4699      	mov	r9, r3
     766:	2b00      	cmp	r3, #0
     768:	d025      	beq.n	7b6 <spi_data_read+0xaa>
     76a:	464f      	mov	r7, r9
     76c:	45d9      	cmp	r9, fp
     76e:	d901      	bls.n	774 <spi_data_read+0x68>
     770:	466b      	mov	r3, sp
     772:	89df      	ldrh	r7, [r3, #14]
     774:	b2bf      	uxth	r7, r7
     776:	240a      	movs	r4, #10
     778:	ab04      	add	r3, sp, #16
     77a:	1cde      	adds	r6, r3, #3
     77c:	2101      	movs	r1, #1
     77e:	0030      	movs	r0, r6
     780:	47c0      	blx	r8
     782:	1e05      	subs	r5, r0, #0
     784:	d119      	bne.n	7ba <spi_data_read+0xae>
     786:	7833      	ldrb	r3, [r6, #0]
     788:	091b      	lsrs	r3, r3, #4
     78a:	2b0f      	cmp	r3, #15
     78c:	d0d2      	beq.n	734 <spi_data_read+0x28>
     78e:	3c01      	subs	r4, #1
     790:	b224      	sxth	r4, r4
     792:	1c63      	adds	r3, r4, #1
     794:	d1f2      	bne.n	77c <spi_data_read+0x70>
     796:	0028      	movs	r0, r5
     798:	b007      	add	sp, #28
     79a:	bc3c      	pop	{r2, r3, r4, r5}
     79c:	4690      	mov	r8, r2
     79e:	4699      	mov	r9, r3
     7a0:	46a2      	mov	sl, r4
     7a2:	46ab      	mov	fp, r5
     7a4:	bdf0      	pop	{r4, r5, r6, r7, pc}
     7a6:	2102      	movs	r1, #2
     7a8:	a805      	add	r0, sp, #20
     7aa:	4b05      	ldr	r3, [pc, #20]	; (7c0 <spi_data_read+0xb4>)
     7ac:	4798      	blx	r3
     7ae:	2800      	cmp	r0, #0
     7b0:	d0d1      	beq.n	756 <spi_data_read+0x4a>
     7b2:	0025      	movs	r5, r4
     7b4:	e7ef      	b.n	796 <spi_data_read+0x8a>
     7b6:	2501      	movs	r5, #1
     7b8:	e7ed      	b.n	796 <spi_data_read+0x8a>
     7ba:	2500      	movs	r5, #0
     7bc:	e7eb      	b.n	796 <spi_data_read+0x8a>
     7be:	46c0      	nop			; (mov r8, r8)
     7c0:	00000665 	.word	0x00000665
     7c4:	20000094 	.word	0x20000094

000007c8 <spi_write_reg>:
     7c8:	b5f0      	push	{r4, r5, r6, r7, lr}
     7ca:	46d6      	mov	lr, sl
     7cc:	464f      	mov	r7, r9
     7ce:	4646      	mov	r6, r8
     7d0:	b5c0      	push	{r6, r7, lr}
     7d2:	b086      	sub	sp, #24
     7d4:	9003      	str	r0, [sp, #12]
     7d6:	9105      	str	r1, [sp, #20]
     7d8:	2830      	cmp	r0, #48	; 0x30
     7da:	d831      	bhi.n	840 <spi_write_reg+0x78>
     7dc:	4b1d      	ldr	r3, [pc, #116]	; (854 <spi_write_reg+0x8c>)
     7de:	781e      	ldrb	r6, [r3, #0]
     7e0:	b2f3      	uxtb	r3, r6
     7e2:	9304      	str	r3, [sp, #16]
     7e4:	2300      	movs	r3, #0
     7e6:	2230      	movs	r2, #48	; 0x30
     7e8:	9903      	ldr	r1, [sp, #12]
     7ea:	428a      	cmp	r2, r1
     7ec:	415b      	adcs	r3, r3
     7ee:	b2db      	uxtb	r3, r3
     7f0:	469a      	mov	sl, r3
     7f2:	240a      	movs	r4, #10
     7f4:	4b18      	ldr	r3, [pc, #96]	; (858 <spi_write_reg+0x90>)
     7f6:	4699      	mov	r9, r3
     7f8:	4e18      	ldr	r6, [pc, #96]	; (85c <spi_write_reg+0x94>)
     7fa:	4653      	mov	r3, sl
     7fc:	9300      	str	r3, [sp, #0]
     7fe:	2304      	movs	r3, #4
     800:	9a05      	ldr	r2, [sp, #20]
     802:	9903      	ldr	r1, [sp, #12]
     804:	9804      	ldr	r0, [sp, #16]
     806:	47c8      	blx	r9
     808:	0005      	movs	r5, r0
     80a:	2801      	cmp	r0, #1
     80c:	d01b      	beq.n	846 <spi_write_reg+0x7e>
     80e:	2001      	movs	r0, #1
     810:	47b0      	blx	r6
     812:	2300      	movs	r3, #0
     814:	9300      	str	r3, [sp, #0]
     816:	2200      	movs	r2, #0
     818:	2100      	movs	r1, #0
     81a:	20cf      	movs	r0, #207	; 0xcf
     81c:	4f0e      	ldr	r7, [pc, #56]	; (858 <spi_write_reg+0x90>)
     81e:	47b8      	blx	r7
     820:	20cf      	movs	r0, #207	; 0xcf
     822:	4b0f      	ldr	r3, [pc, #60]	; (860 <spi_write_reg+0x98>)
     824:	4798      	blx	r3
     826:	2001      	movs	r0, #1
     828:	47b0      	blx	r6
     82a:	3c01      	subs	r4, #1
     82c:	b2e4      	uxtb	r4, r4
     82e:	2c00      	cmp	r4, #0
     830:	d1e3      	bne.n	7fa <spi_write_reg+0x32>
     832:	0028      	movs	r0, r5
     834:	b006      	add	sp, #24
     836:	bc1c      	pop	{r2, r3, r4}
     838:	4690      	mov	r8, r2
     83a:	4699      	mov	r9, r3
     83c:	46a2      	mov	sl, r4
     83e:	bdf0      	pop	{r4, r5, r6, r7, pc}
     840:	4b08      	ldr	r3, [pc, #32]	; (864 <spi_write_reg+0x9c>)
     842:	781e      	ldrb	r6, [r3, #0]
     844:	e7cc      	b.n	7e0 <spi_write_reg+0x18>
     846:	9804      	ldr	r0, [sp, #16]
     848:	4b05      	ldr	r3, [pc, #20]	; (860 <spi_write_reg+0x98>)
     84a:	4798      	blx	r3
     84c:	0005      	movs	r5, r0
     84e:	2801      	cmp	r0, #1
     850:	d1dd      	bne.n	80e <spi_write_reg+0x46>
     852:	e7ee      	b.n	832 <spi_write_reg+0x6a>
     854:	00003f38 	.word	0x00003f38
     858:	0000051d 	.word	0x0000051d
     85c:	00000db9 	.word	0x00000db9
     860:	00000685 	.word	0x00000685
     864:	00003f39 	.word	0x00003f39

00000868 <spi_read_reg>:
     868:	b5f0      	push	{r4, r5, r6, r7, lr}
     86a:	46d6      	mov	lr, sl
     86c:	464f      	mov	r7, r9
     86e:	4646      	mov	r6, r8
     870:	b5c0      	push	{r6, r7, lr}
     872:	b088      	sub	sp, #32
     874:	9003      	str	r0, [sp, #12]
     876:	9105      	str	r1, [sp, #20]
     878:	28ff      	cmp	r0, #255	; 0xff
     87a:	d80e      	bhi.n	89a <spi_read_reg+0x32>
     87c:	4b28      	ldr	r3, [pc, #160]	; (920 <spi_read_reg+0xb8>)
     87e:	781e      	ldrb	r6, [r3, #0]
     880:	b2f3      	uxtb	r3, r6
     882:	9304      	str	r3, [sp, #16]
     884:	2300      	movs	r3, #0
     886:	22ff      	movs	r2, #255	; 0xff
     888:	9903      	ldr	r1, [sp, #12]
     88a:	428a      	cmp	r2, r1
     88c:	415b      	adcs	r3, r3
     88e:	b2df      	uxtb	r7, r3
     890:	240a      	movs	r4, #10
     892:	4b24      	ldr	r3, [pc, #144]	; (924 <spi_read_reg+0xbc>)
     894:	4698      	mov	r8, r3
     896:	46ba      	mov	sl, r7
     898:	e015      	b.n	8c6 <spi_read_reg+0x5e>
     89a:	4b23      	ldr	r3, [pc, #140]	; (928 <spi_read_reg+0xc0>)
     89c:	781e      	ldrb	r6, [r3, #0]
     89e:	e7ef      	b.n	880 <spi_read_reg+0x18>
     8a0:	2001      	movs	r0, #1
     8a2:	4e22      	ldr	r6, [pc, #136]	; (92c <spi_read_reg+0xc4>)
     8a4:	47b0      	blx	r6
     8a6:	2300      	movs	r3, #0
     8a8:	9300      	str	r3, [sp, #0]
     8aa:	2200      	movs	r2, #0
     8ac:	2100      	movs	r1, #0
     8ae:	20cf      	movs	r0, #207	; 0xcf
     8b0:	4f1c      	ldr	r7, [pc, #112]	; (924 <spi_read_reg+0xbc>)
     8b2:	47b8      	blx	r7
     8b4:	20cf      	movs	r0, #207	; 0xcf
     8b6:	4b1e      	ldr	r3, [pc, #120]	; (930 <spi_read_reg+0xc8>)
     8b8:	4798      	blx	r3
     8ba:	2001      	movs	r0, #1
     8bc:	47b0      	blx	r6
     8be:	3c01      	subs	r4, #1
     8c0:	b2e4      	uxtb	r4, r4
     8c2:	2c00      	cmp	r4, #0
     8c4:	d024      	beq.n	910 <spi_read_reg+0xa8>
     8c6:	4653      	mov	r3, sl
     8c8:	9300      	str	r3, [sp, #0]
     8ca:	2304      	movs	r3, #4
     8cc:	2200      	movs	r2, #0
     8ce:	9903      	ldr	r1, [sp, #12]
     8d0:	9804      	ldr	r0, [sp, #16]
     8d2:	47c0      	blx	r8
     8d4:	0005      	movs	r5, r0
     8d6:	2801      	cmp	r0, #1
     8d8:	d1e2      	bne.n	8a0 <spi_read_reg+0x38>
     8da:	9804      	ldr	r0, [sp, #16]
     8dc:	4b14      	ldr	r3, [pc, #80]	; (930 <spi_read_reg+0xc8>)
     8de:	4798      	blx	r3
     8e0:	0005      	movs	r5, r0
     8e2:	2801      	cmp	r0, #1
     8e4:	d1dc      	bne.n	8a0 <spi_read_reg+0x38>
     8e6:	4652      	mov	r2, sl
     8e8:	2104      	movs	r1, #4
     8ea:	a807      	add	r0, sp, #28
     8ec:	4b11      	ldr	r3, [pc, #68]	; (934 <spi_read_reg+0xcc>)
     8ee:	4798      	blx	r3
     8f0:	0005      	movs	r5, r0
     8f2:	2801      	cmp	r0, #1
     8f4:	d1d4      	bne.n	8a0 <spi_read_reg+0x38>
     8f6:	aa07      	add	r2, sp, #28
     8f8:	7853      	ldrb	r3, [r2, #1]
     8fa:	021b      	lsls	r3, r3, #8
     8fc:	7891      	ldrb	r1, [r2, #2]
     8fe:	0409      	lsls	r1, r1, #16
     900:	430b      	orrs	r3, r1
     902:	7811      	ldrb	r1, [r2, #0]
     904:	430b      	orrs	r3, r1
     906:	78d2      	ldrb	r2, [r2, #3]
     908:	0612      	lsls	r2, r2, #24
     90a:	4313      	orrs	r3, r2
     90c:	9a05      	ldr	r2, [sp, #20]
     90e:	6013      	str	r3, [r2, #0]
     910:	0028      	movs	r0, r5
     912:	b008      	add	sp, #32
     914:	bc1c      	pop	{r2, r3, r4}
     916:	4690      	mov	r8, r2
     918:	4699      	mov	r9, r3
     91a:	46a2      	mov	sl, r4
     91c:	bdf0      	pop	{r4, r5, r6, r7, pc}
     91e:	46c0      	nop			; (mov r8, r8)
     920:	00003f3a 	.word	0x00003f3a
     924:	0000051d 	.word	0x0000051d
     928:	00003f3b 	.word	0x00003f3b
     92c:	00000db9 	.word	0x00000db9
     930:	00000685 	.word	0x00000685
     934:	0000070d 	.word	0x0000070d

00000938 <nm_spi_reset>:
     938:	b510      	push	{r4, lr}
     93a:	b082      	sub	sp, #8
     93c:	2300      	movs	r3, #0
     93e:	9300      	str	r3, [sp, #0]
     940:	2200      	movs	r2, #0
     942:	2100      	movs	r1, #0
     944:	20cf      	movs	r0, #207	; 0xcf
     946:	4c04      	ldr	r4, [pc, #16]	; (958 <nm_spi_reset+0x20>)
     948:	47a0      	blx	r4
     94a:	20cf      	movs	r0, #207	; 0xcf
     94c:	4b03      	ldr	r3, [pc, #12]	; (95c <nm_spi_reset+0x24>)
     94e:	4798      	blx	r3
     950:	2000      	movs	r0, #0
     952:	b002      	add	sp, #8
     954:	bd10      	pop	{r4, pc}
     956:	46c0      	nop			; (mov r8, r8)
     958:	0000051d 	.word	0x0000051d
     95c:	00000685 	.word	0x00000685

00000960 <nm_spi_read_reg>:
     960:	b500      	push	{lr}
     962:	b083      	sub	sp, #12
     964:	a901      	add	r1, sp, #4
     966:	4b02      	ldr	r3, [pc, #8]	; (970 <nm_spi_read_reg+0x10>)
     968:	4798      	blx	r3
     96a:	9801      	ldr	r0, [sp, #4]
     96c:	b003      	add	sp, #12
     96e:	bd00      	pop	{pc}
     970:	00000869 	.word	0x00000869

00000974 <nm_spi_read_reg_with_ret>:
     974:	b510      	push	{r4, lr}
     976:	4b04      	ldr	r3, [pc, #16]	; (988 <nm_spi_read_reg_with_ret+0x14>)
     978:	4798      	blx	r3
     97a:	2300      	movs	r3, #0
     97c:	2801      	cmp	r0, #1
     97e:	d101      	bne.n	984 <nm_spi_read_reg_with_ret+0x10>
     980:	0018      	movs	r0, r3
     982:	bd10      	pop	{r4, pc}
     984:	3b06      	subs	r3, #6
     986:	e7fb      	b.n	980 <nm_spi_read_reg_with_ret+0xc>
     988:	00000869 	.word	0x00000869

0000098c <nm_spi_write_reg>:
     98c:	b510      	push	{r4, lr}
     98e:	4b04      	ldr	r3, [pc, #16]	; (9a0 <nm_spi_write_reg+0x14>)
     990:	4798      	blx	r3
     992:	2300      	movs	r3, #0
     994:	2801      	cmp	r0, #1
     996:	d101      	bne.n	99c <nm_spi_write_reg+0x10>
     998:	0018      	movs	r0, r3
     99a:	bd10      	pop	{r4, pc}
     99c:	3b06      	subs	r3, #6
     99e:	e7fb      	b.n	998 <nm_spi_write_reg+0xc>
     9a0:	000007c9 	.word	0x000007c9

000009a4 <nm_spi_init>:
     9a4:	b510      	push	{r4, lr}
     9a6:	b082      	sub	sp, #8
     9a8:	2300      	movs	r3, #0
     9aa:	9300      	str	r3, [sp, #0]
     9ac:	4a1e      	ldr	r2, [pc, #120]	; (a28 <nm_spi_init+0x84>)
     9ae:	7013      	strb	r3, [r2, #0]
     9b0:	4669      	mov	r1, sp
     9b2:	481e      	ldr	r0, [pc, #120]	; (a2c <nm_spi_init+0x88>)
     9b4:	4b1e      	ldr	r3, [pc, #120]	; (a30 <nm_spi_init+0x8c>)
     9b6:	4798      	blx	r3
     9b8:	2800      	cmp	r0, #0
     9ba:	d027      	beq.n	a0c <nm_spi_init+0x68>
     9bc:	4b1a      	ldr	r3, [pc, #104]	; (a28 <nm_spi_init+0x84>)
     9be:	781b      	ldrb	r3, [r3, #0]
     9c0:	2b00      	cmp	r3, #0
     9c2:	d10d      	bne.n	9e0 <nm_spi_init+0x3c>
     9c4:	337c      	adds	r3, #124	; 0x7c
     9c6:	9900      	ldr	r1, [sp, #0]
     9c8:	4399      	bics	r1, r3
     9ca:	3b2c      	subs	r3, #44	; 0x2c
     9cc:	4319      	orrs	r1, r3
     9ce:	9100      	str	r1, [sp, #0]
     9d0:	4816      	ldr	r0, [pc, #88]	; (a2c <nm_spi_init+0x88>)
     9d2:	4b18      	ldr	r3, [pc, #96]	; (a34 <nm_spi_init+0x90>)
     9d4:	4798      	blx	r3
     9d6:	2800      	cmp	r0, #0
     9d8:	d016      	beq.n	a08 <nm_spi_init+0x64>
     9da:	2201      	movs	r2, #1
     9dc:	4b12      	ldr	r3, [pc, #72]	; (a28 <nm_spi_init+0x84>)
     9de:	701a      	strb	r2, [r3, #0]
     9e0:	a901      	add	r1, sp, #4
     9e2:	2080      	movs	r0, #128	; 0x80
     9e4:	0140      	lsls	r0, r0, #5
     9e6:	4b12      	ldr	r3, [pc, #72]	; (a30 <nm_spi_init+0x8c>)
     9e8:	4798      	blx	r3
     9ea:	2800      	cmp	r0, #0
     9ec:	d018      	beq.n	a20 <nm_spi_init+0x7c>
     9ee:	4c0f      	ldr	r4, [pc, #60]	; (a2c <nm_spi_init+0x88>)
     9f0:	0020      	movs	r0, r4
     9f2:	4b11      	ldr	r3, [pc, #68]	; (a38 <nm_spi_init+0x94>)
     9f4:	4798      	blx	r3
     9f6:	2370      	movs	r3, #112	; 0x70
     9f8:	0001      	movs	r1, r0
     9fa:	4399      	bics	r1, r3
     9fc:	2050      	movs	r0, #80	; 0x50
     9fe:	4301      	orrs	r1, r0
     a00:	0020      	movs	r0, r4
     a02:	4b0e      	ldr	r3, [pc, #56]	; (a3c <nm_spi_init+0x98>)
     a04:	4798      	blx	r3
     a06:	2000      	movs	r0, #0
     a08:	b002      	add	sp, #8
     a0a:	bd10      	pop	{r4, pc}
     a0c:	2201      	movs	r2, #1
     a0e:	4b06      	ldr	r3, [pc, #24]	; (a28 <nm_spi_init+0x84>)
     a10:	701a      	strb	r2, [r3, #0]
     a12:	4669      	mov	r1, sp
     a14:	4805      	ldr	r0, [pc, #20]	; (a2c <nm_spi_init+0x88>)
     a16:	4b06      	ldr	r3, [pc, #24]	; (a30 <nm_spi_init+0x8c>)
     a18:	4798      	blx	r3
     a1a:	2800      	cmp	r0, #0
     a1c:	d1ce      	bne.n	9bc <nm_spi_init+0x18>
     a1e:	e7f3      	b.n	a08 <nm_spi_init+0x64>
     a20:	2006      	movs	r0, #6
     a22:	4240      	negs	r0, r0
     a24:	e7f0      	b.n	a08 <nm_spi_init+0x64>
     a26:	46c0      	nop			; (mov r8, r8)
     a28:	20000094 	.word	0x20000094
     a2c:	0000e824 	.word	0x0000e824
     a30:	00000869 	.word	0x00000869
     a34:	000007c9 	.word	0x000007c9
     a38:	00000961 	.word	0x00000961
     a3c:	0000098d 	.word	0x0000098d

00000a40 <nm_spi_read_block>:
     a40:	b5f0      	push	{r4, r5, r6, r7, lr}
     a42:	46de      	mov	lr, fp
     a44:	4657      	mov	r7, sl
     a46:	464e      	mov	r6, r9
     a48:	4645      	mov	r5, r8
     a4a:	b5e0      	push	{r5, r6, r7, lr}
     a4c:	b087      	sub	sp, #28
     a4e:	9002      	str	r0, [sp, #8]
     a50:	9103      	str	r1, [sp, #12]
     a52:	0017      	movs	r7, r2
     a54:	250a      	movs	r5, #10
     a56:	2300      	movs	r3, #0
     a58:	469b      	mov	fp, r3
     a5a:	2400      	movs	r4, #0
     a5c:	4b24      	ldr	r3, [pc, #144]	; (af0 <nm_spi_read_block+0xb0>)
     a5e:	4698      	mov	r8, r3
     a60:	e01b      	b.n	a9a <nm_spi_read_block+0x5a>
     a62:	9400      	str	r4, [sp, #0]
     a64:	003b      	movs	r3, r7
     a66:	0022      	movs	r2, r4
     a68:	9902      	ldr	r1, [sp, #8]
     a6a:	20c8      	movs	r0, #200	; 0xc8
     a6c:	47c0      	blx	r8
     a6e:	2801      	cmp	r0, #1
     a70:	d019      	beq.n	aa6 <nm_spi_read_block+0x66>
     a72:	2001      	movs	r0, #1
     a74:	4b1f      	ldr	r3, [pc, #124]	; (af4 <nm_spi_read_block+0xb4>)
     a76:	469a      	mov	sl, r3
     a78:	4798      	blx	r3
     a7a:	9400      	str	r4, [sp, #0]
     a7c:	0023      	movs	r3, r4
     a7e:	0022      	movs	r2, r4
     a80:	0021      	movs	r1, r4
     a82:	20cf      	movs	r0, #207	; 0xcf
     a84:	4e1a      	ldr	r6, [pc, #104]	; (af0 <nm_spi_read_block+0xb0>)
     a86:	47b0      	blx	r6
     a88:	20cf      	movs	r0, #207	; 0xcf
     a8a:	4b1b      	ldr	r3, [pc, #108]	; (af8 <nm_spi_read_block+0xb8>)
     a8c:	4798      	blx	r3
     a8e:	2001      	movs	r0, #1
     a90:	47d0      	blx	sl
     a92:	3d01      	subs	r5, #1
     a94:	b2ed      	uxtb	r5, r5
     a96:	2d00      	cmp	r5, #0
     a98:	d020      	beq.n	adc <nm_spi_read_block+0x9c>
     a9a:	2f01      	cmp	r7, #1
     a9c:	d1e1      	bne.n	a62 <nm_spi_read_block+0x22>
     a9e:	2301      	movs	r3, #1
     aa0:	469b      	mov	fp, r3
     aa2:	3701      	adds	r7, #1
     aa4:	e7dd      	b.n	a62 <nm_spi_read_block+0x22>
     aa6:	30c7      	adds	r0, #199	; 0xc7
     aa8:	4b13      	ldr	r3, [pc, #76]	; (af8 <nm_spi_read_block+0xb8>)
     aaa:	4798      	blx	r3
     aac:	2801      	cmp	r0, #1
     aae:	d1e0      	bne.n	a72 <nm_spi_read_block+0x32>
     ab0:	465b      	mov	r3, fp
     ab2:	2b00      	cmp	r3, #0
     ab4:	d00c      	beq.n	ad0 <nm_spi_read_block+0x90>
     ab6:	ae05      	add	r6, sp, #20
     ab8:	0022      	movs	r2, r4
     aba:	0039      	movs	r1, r7
     abc:	0030      	movs	r0, r6
     abe:	4b0f      	ldr	r3, [pc, #60]	; (afc <nm_spi_read_block+0xbc>)
     ac0:	4798      	blx	r3
     ac2:	7833      	ldrb	r3, [r6, #0]
     ac4:	9a03      	ldr	r2, [sp, #12]
     ac6:	7013      	strb	r3, [r2, #0]
     ac8:	2801      	cmp	r0, #1
     aca:	d1d2      	bne.n	a72 <nm_spi_read_block+0x32>
     acc:	2000      	movs	r0, #0
     ace:	e007      	b.n	ae0 <nm_spi_read_block+0xa0>
     ad0:	0022      	movs	r2, r4
     ad2:	0039      	movs	r1, r7
     ad4:	9803      	ldr	r0, [sp, #12]
     ad6:	4b09      	ldr	r3, [pc, #36]	; (afc <nm_spi_read_block+0xbc>)
     ad8:	4798      	blx	r3
     ada:	e7f5      	b.n	ac8 <nm_spi_read_block+0x88>
     adc:	2006      	movs	r0, #6
     ade:	4240      	negs	r0, r0
     ae0:	b007      	add	sp, #28
     ae2:	bc3c      	pop	{r2, r3, r4, r5}
     ae4:	4690      	mov	r8, r2
     ae6:	4699      	mov	r9, r3
     ae8:	46a2      	mov	sl, r4
     aea:	46ab      	mov	fp, r5
     aec:	bdf0      	pop	{r4, r5, r6, r7, pc}
     aee:	46c0      	nop			; (mov r8, r8)
     af0:	0000051d 	.word	0x0000051d
     af4:	00000db9 	.word	0x00000db9
     af8:	00000685 	.word	0x00000685
     afc:	0000070d 	.word	0x0000070d

00000b00 <nm_spi_write_block>:
     b00:	b5f0      	push	{r4, r5, r6, r7, lr}
     b02:	46de      	mov	lr, fp
     b04:	4657      	mov	r7, sl
     b06:	464e      	mov	r6, r9
     b08:	4645      	mov	r5, r8
     b0a:	b5e0      	push	{r5, r6, r7, lr}
     b0c:	b087      	sub	sp, #28
     b0e:	9002      	str	r0, [sp, #8]
     b10:	468b      	mov	fp, r1
     b12:	0017      	movs	r7, r2
     b14:	240a      	movs	r4, #10
     b16:	2380      	movs	r3, #128	; 0x80
     b18:	019b      	lsls	r3, r3, #6
     b1a:	469a      	mov	sl, r3
     b1c:	466a      	mov	r2, sp
     b1e:	81d3      	strh	r3, [r2, #14]
     b20:	e01c      	b.n	b5c <nm_spi_write_block+0x5c>
     b22:	2300      	movs	r3, #0
     b24:	9300      	str	r3, [sp, #0]
     b26:	003b      	movs	r3, r7
     b28:	2200      	movs	r2, #0
     b2a:	9902      	ldr	r1, [sp, #8]
     b2c:	20c7      	movs	r0, #199	; 0xc7
     b2e:	4d4b      	ldr	r5, [pc, #300]	; (c5c <nm_spi_write_block+0x15c>)
     b30:	47a8      	blx	r5
     b32:	2801      	cmp	r0, #1
     b34:	d016      	beq.n	b64 <nm_spi_write_block+0x64>
     b36:	2001      	movs	r0, #1
     b38:	4d49      	ldr	r5, [pc, #292]	; (c60 <nm_spi_write_block+0x160>)
     b3a:	47a8      	blx	r5
     b3c:	2300      	movs	r3, #0
     b3e:	9300      	str	r3, [sp, #0]
     b40:	2200      	movs	r2, #0
     b42:	2100      	movs	r1, #0
     b44:	20cf      	movs	r0, #207	; 0xcf
     b46:	4e45      	ldr	r6, [pc, #276]	; (c5c <nm_spi_write_block+0x15c>)
     b48:	47b0      	blx	r6
     b4a:	20cf      	movs	r0, #207	; 0xcf
     b4c:	4b45      	ldr	r3, [pc, #276]	; (c64 <nm_spi_write_block+0x164>)
     b4e:	4798      	blx	r3
     b50:	2001      	movs	r0, #1
     b52:	47a8      	blx	r5
     b54:	3c01      	subs	r4, #1
     b56:	b2e4      	uxtb	r4, r4
     b58:	2c00      	cmp	r4, #0
     b5a:	d050      	beq.n	bfe <nm_spi_write_block+0xfe>
     b5c:	2f01      	cmp	r7, #1
     b5e:	d1e0      	bne.n	b22 <nm_spi_write_block+0x22>
     b60:	3701      	adds	r7, #1
     b62:	e7de      	b.n	b22 <nm_spi_write_block+0x22>
     b64:	30c6      	adds	r0, #198	; 0xc6
     b66:	4b3f      	ldr	r3, [pc, #252]	; (c64 <nm_spi_write_block+0x164>)
     b68:	4798      	blx	r3
     b6a:	2801      	cmp	r0, #1
     b6c:	d1e3      	bne.n	b36 <nm_spi_write_block+0x36>
     b6e:	2200      	movs	r2, #0
     b70:	ab05      	add	r3, sp, #20
     b72:	801a      	strh	r2, [r3, #0]
     b74:	003d      	movs	r5, r7
     b76:	2300      	movs	r3, #0
     b78:	46a0      	mov	r8, r4
     b7a:	46b9      	mov	r9, r7
     b7c:	001c      	movs	r4, r3
     b7e:	e022      	b.n	bc6 <nm_spi_write_block+0xc6>
     b80:	2300      	movs	r3, #0
     b82:	4652      	mov	r2, sl
     b84:	42aa      	cmp	r2, r5
     b86:	415b      	adcs	r3, r3
     b88:	3302      	adds	r3, #2
     b8a:	200b      	movs	r0, #11
     b8c:	aa02      	add	r2, sp, #8
     b8e:	4694      	mov	ip, r2
     b90:	4460      	add	r0, ip
     b92:	2210      	movs	r2, #16
     b94:	4252      	negs	r2, r2
     b96:	4313      	orrs	r3, r2
     b98:	7003      	strb	r3, [r0, #0]
     b9a:	2101      	movs	r1, #1
     b9c:	4b32      	ldr	r3, [pc, #200]	; (c68 <nm_spi_write_block+0x168>)
     b9e:	4798      	blx	r3
     ba0:	2800      	cmp	r0, #0
     ba2:	d126      	bne.n	bf2 <nm_spi_write_block+0xf2>
     ba4:	465b      	mov	r3, fp
     ba6:	1918      	adds	r0, r3, r4
     ba8:	0031      	movs	r1, r6
     baa:	4b2f      	ldr	r3, [pc, #188]	; (c68 <nm_spi_write_block+0x168>)
     bac:	4798      	blx	r3
     bae:	1e07      	subs	r7, r0, #0
     bb0:	d122      	bne.n	bf8 <nm_spi_write_block+0xf8>
     bb2:	4b2e      	ldr	r3, [pc, #184]	; (c6c <nm_spi_write_block+0x16c>)
     bb4:	781b      	ldrb	r3, [r3, #0]
     bb6:	2b00      	cmp	r3, #0
     bb8:	d012      	beq.n	be0 <nm_spi_write_block+0xe0>
     bba:	1934      	adds	r4, r6, r4
     bbc:	b224      	sxth	r4, r4
     bbe:	1bad      	subs	r5, r5, r6
     bc0:	b2ad      	uxth	r5, r5
     bc2:	2d00      	cmp	r5, #0
     bc4:	d024      	beq.n	c10 <nm_spi_write_block+0x110>
     bc6:	1c2e      	adds	r6, r5, #0
     bc8:	4555      	cmp	r5, sl
     bca:	d901      	bls.n	bd0 <nm_spi_write_block+0xd0>
     bcc:	466b      	mov	r3, sp
     bce:	89de      	ldrh	r6, [r3, #14]
     bd0:	b2b6      	uxth	r6, r6
     bd2:	2c00      	cmp	r4, #0
     bd4:	d1d4      	bne.n	b80 <nm_spi_write_block+0x80>
     bd6:	2303      	movs	r3, #3
     bd8:	4555      	cmp	r5, sl
     bda:	d9d6      	bls.n	b8a <nm_spi_write_block+0x8a>
     bdc:	3b02      	subs	r3, #2
     bde:	e7d4      	b.n	b8a <nm_spi_write_block+0x8a>
     be0:	2102      	movs	r1, #2
     be2:	a805      	add	r0, sp, #20
     be4:	4b20      	ldr	r3, [pc, #128]	; (c68 <nm_spi_write_block+0x168>)
     be6:	4798      	blx	r3
     be8:	2800      	cmp	r0, #0
     bea:	d0e6      	beq.n	bba <nm_spi_write_block+0xba>
     bec:	4644      	mov	r4, r8
     bee:	464f      	mov	r7, r9
     bf0:	e7a1      	b.n	b36 <nm_spi_write_block+0x36>
     bf2:	4644      	mov	r4, r8
     bf4:	464f      	mov	r7, r9
     bf6:	e79e      	b.n	b36 <nm_spi_write_block+0x36>
     bf8:	4644      	mov	r4, r8
     bfa:	464f      	mov	r7, r9
     bfc:	e79b      	b.n	b36 <nm_spi_write_block+0x36>
     bfe:	2006      	movs	r0, #6
     c00:	4240      	negs	r0, r0
     c02:	b007      	add	sp, #28
     c04:	bc3c      	pop	{r2, r3, r4, r5}
     c06:	4690      	mov	r8, r2
     c08:	4699      	mov	r9, r3
     c0a:	46a2      	mov	sl, r4
     c0c:	46ab      	mov	fp, r5
     c0e:	bdf0      	pop	{r4, r5, r6, r7, pc}
     c10:	4644      	mov	r4, r8
     c12:	464b      	mov	r3, r9
     c14:	46b9      	mov	r9, r7
     c16:	001f      	movs	r7, r3
     c18:	4b14      	ldr	r3, [pc, #80]	; (c6c <nm_spi_write_block+0x16c>)
     c1a:	781d      	ldrb	r5, [r3, #0]
     c1c:	1e6b      	subs	r3, r5, #1
     c1e:	419d      	sbcs	r5, r3
     c20:	3502      	adds	r5, #2
     c22:	b2a9      	uxth	r1, r5
     c24:	a805      	add	r0, sp, #20
     c26:	4b12      	ldr	r3, [pc, #72]	; (c70 <nm_spi_write_block+0x170>)
     c28:	4798      	blx	r3
     c2a:	2800      	cmp	r0, #0
     c2c:	d110      	bne.n	c50 <nm_spi_write_block+0x150>
     c2e:	ab06      	add	r3, sp, #24
     c30:	195b      	adds	r3, r3, r5
     c32:	3b05      	subs	r3, #5
     c34:	781b      	ldrb	r3, [r3, #0]
     c36:	4681      	mov	r9, r0
     c38:	2b00      	cmp	r3, #0
     c3a:	d109      	bne.n	c50 <nm_spi_write_block+0x150>
     c3c:	ab06      	add	r3, sp, #24
     c3e:	469c      	mov	ip, r3
     c40:	4465      	add	r5, ip
     c42:	3d06      	subs	r5, #6
     c44:	7828      	ldrb	r0, [r5, #0]
     c46:	38c3      	subs	r0, #195	; 0xc3
     c48:	4243      	negs	r3, r0
     c4a:	4158      	adcs	r0, r3
     c4c:	b243      	sxtb	r3, r0
     c4e:	4699      	mov	r9, r3
     c50:	464b      	mov	r3, r9
     c52:	2b01      	cmp	r3, #1
     c54:	d000      	beq.n	c58 <nm_spi_write_block+0x158>
     c56:	e76e      	b.n	b36 <nm_spi_write_block+0x36>
     c58:	2000      	movs	r0, #0
     c5a:	e7d2      	b.n	c02 <nm_spi_write_block+0x102>
     c5c:	0000051d 	.word	0x0000051d
     c60:	00000db9 	.word	0x00000db9
     c64:	00000685 	.word	0x00000685
     c68:	000004fd 	.word	0x000004fd
     c6c:	20000094 	.word	0x20000094
     c70:	00000665 	.word	0x00000665

00000c74 <system_board_init>:
     c74:	b5f0      	push	{r4, r5, r6, r7, lr}
     c76:	b083      	sub	sp, #12
     c78:	ac01      	add	r4, sp, #4
     c7a:	2501      	movs	r5, #1
     c7c:	7065      	strb	r5, [r4, #1]
     c7e:	2300      	movs	r3, #0
     c80:	70a3      	strb	r3, [r4, #2]
     c82:	7025      	strb	r5, [r4, #0]
     c84:	0021      	movs	r1, r4
     c86:	2013      	movs	r0, #19
     c88:	4f07      	ldr	r7, [pc, #28]	; (ca8 <system_board_init+0x34>)
     c8a:	47b8      	blx	r7
     c8c:	4e07      	ldr	r6, [pc, #28]	; (cac <system_board_init+0x38>)
     c8e:	2380      	movs	r3, #128	; 0x80
     c90:	031b      	lsls	r3, r3, #12
     c92:	61b3      	str	r3, [r6, #24]
     c94:	7025      	strb	r5, [r4, #0]
     c96:	0021      	movs	r1, r4
     c98:	2012      	movs	r0, #18
     c9a:	47b8      	blx	r7
     c9c:	2380      	movs	r3, #128	; 0x80
     c9e:	02db      	lsls	r3, r3, #11
     ca0:	61b3      	str	r3, [r6, #24]
     ca2:	b003      	add	sp, #12
     ca4:	bdf0      	pop	{r4, r5, r6, r7, pc}
     ca6:	46c0      	nop			; (mov r8, r8)
     ca8:	000011ed 	.word	0x000011ed
     cac:	40002800 	.word	0x40002800

00000cb0 <Dummy_Handler>:
     cb0:	e7fe      	b.n	cb0 <Dummy_Handler>
	...

00000cb4 <Reset_Handler>:
     cb4:	b510      	push	{r4, lr}
     cb6:	4a1a      	ldr	r2, [pc, #104]	; (d20 <Reset_Handler+0x6c>)
     cb8:	4b1a      	ldr	r3, [pc, #104]	; (d24 <Reset_Handler+0x70>)
     cba:	429a      	cmp	r2, r3
     cbc:	d011      	beq.n	ce2 <Reset_Handler+0x2e>
     cbe:	001a      	movs	r2, r3
     cc0:	4b19      	ldr	r3, [pc, #100]	; (d28 <Reset_Handler+0x74>)
     cc2:	429a      	cmp	r2, r3
     cc4:	d20d      	bcs.n	ce2 <Reset_Handler+0x2e>
     cc6:	4a19      	ldr	r2, [pc, #100]	; (d2c <Reset_Handler+0x78>)
     cc8:	3303      	adds	r3, #3
     cca:	1a9b      	subs	r3, r3, r2
     ccc:	089b      	lsrs	r3, r3, #2
     cce:	3301      	adds	r3, #1
     cd0:	009b      	lsls	r3, r3, #2
     cd2:	2200      	movs	r2, #0
     cd4:	4813      	ldr	r0, [pc, #76]	; (d24 <Reset_Handler+0x70>)
     cd6:	4912      	ldr	r1, [pc, #72]	; (d20 <Reset_Handler+0x6c>)
     cd8:	588c      	ldr	r4, [r1, r2]
     cda:	5084      	str	r4, [r0, r2]
     cdc:	3204      	adds	r2, #4
     cde:	429a      	cmp	r2, r3
     ce0:	d1fa      	bne.n	cd8 <Reset_Handler+0x24>
     ce2:	4a13      	ldr	r2, [pc, #76]	; (d30 <Reset_Handler+0x7c>)
     ce4:	4b13      	ldr	r3, [pc, #76]	; (d34 <Reset_Handler+0x80>)
     ce6:	429a      	cmp	r2, r3
     ce8:	d20a      	bcs.n	d00 <Reset_Handler+0x4c>
     cea:	43d3      	mvns	r3, r2
     cec:	4911      	ldr	r1, [pc, #68]	; (d34 <Reset_Handler+0x80>)
     cee:	185b      	adds	r3, r3, r1
     cf0:	2103      	movs	r1, #3
     cf2:	438b      	bics	r3, r1
     cf4:	3304      	adds	r3, #4
     cf6:	189b      	adds	r3, r3, r2
     cf8:	2100      	movs	r1, #0
     cfa:	c202      	stmia	r2!, {r1}
     cfc:	4293      	cmp	r3, r2
     cfe:	d1fc      	bne.n	cfa <Reset_Handler+0x46>
     d00:	4a0d      	ldr	r2, [pc, #52]	; (d38 <Reset_Handler+0x84>)
     d02:	21ff      	movs	r1, #255	; 0xff
     d04:	4b0d      	ldr	r3, [pc, #52]	; (d3c <Reset_Handler+0x88>)
     d06:	438b      	bics	r3, r1
     d08:	6093      	str	r3, [r2, #8]
     d0a:	4a0d      	ldr	r2, [pc, #52]	; (d40 <Reset_Handler+0x8c>)
     d0c:	6853      	ldr	r3, [r2, #4]
     d0e:	397f      	subs	r1, #127	; 0x7f
     d10:	430b      	orrs	r3, r1
     d12:	6053      	str	r3, [r2, #4]
     d14:	4b0b      	ldr	r3, [pc, #44]	; (d44 <Reset_Handler+0x90>)
     d16:	4798      	blx	r3
     d18:	4b0b      	ldr	r3, [pc, #44]	; (d48 <Reset_Handler+0x94>)
     d1a:	4798      	blx	r3
     d1c:	e7fe      	b.n	d1c <Reset_Handler+0x68>
     d1e:	46c0      	nop			; (mov r8, r8)
     d20:	000041b4 	.word	0x000041b4
     d24:	20000000 	.word	0x20000000
     d28:	20000070 	.word	0x20000070
     d2c:	20000004 	.word	0x20000004
     d30:	20000070 	.word	0x20000070
     d34:	20000618 	.word	0x20000618
     d38:	e000ed00 	.word	0xe000ed00
     d3c:	00000000 	.word	0x00000000
     d40:	41004000 	.word	0x41004000
     d44:	000033bd 	.word	0x000033bd
     d48:	00002d19 	.word	0x00002d19

00000d4c <delay_init>:
     d4c:	b570      	push	{r4, r5, r6, lr}
     d4e:	2000      	movs	r0, #0
     d50:	4b08      	ldr	r3, [pc, #32]	; (d74 <delay_init+0x28>)
     d52:	4798      	blx	r3
     d54:	0005      	movs	r5, r0
     d56:	4c08      	ldr	r4, [pc, #32]	; (d78 <delay_init+0x2c>)
     d58:	21fa      	movs	r1, #250	; 0xfa
     d5a:	0089      	lsls	r1, r1, #2
     d5c:	47a0      	blx	r4
     d5e:	4b07      	ldr	r3, [pc, #28]	; (d7c <delay_init+0x30>)
     d60:	6018      	str	r0, [r3, #0]
     d62:	4907      	ldr	r1, [pc, #28]	; (d80 <delay_init+0x34>)
     d64:	0028      	movs	r0, r5
     d66:	47a0      	blx	r4
     d68:	4b06      	ldr	r3, [pc, #24]	; (d84 <delay_init+0x38>)
     d6a:	6018      	str	r0, [r3, #0]
     d6c:	2205      	movs	r2, #5
     d6e:	4b06      	ldr	r3, [pc, #24]	; (d88 <delay_init+0x3c>)
     d70:	601a      	str	r2, [r3, #0]
     d72:	bd70      	pop	{r4, r5, r6, pc}
     d74:	000027f5 	.word	0x000027f5
     d78:	00003251 	.word	0x00003251
     d7c:	20000000 	.word	0x20000000
     d80:	000f4240 	.word	0x000f4240
     d84:	20000004 	.word	0x20000004
     d88:	e000e010 	.word	0xe000e010

00000d8c <delay_cycles_ms>:
     d8c:	b530      	push	{r4, r5, lr}
     d8e:	4b08      	ldr	r3, [pc, #32]	; (db0 <delay_cycles_ms+0x24>)
     d90:	681c      	ldr	r4, [r3, #0]
     d92:	4a08      	ldr	r2, [pc, #32]	; (db4 <delay_cycles_ms+0x28>)
     d94:	2500      	movs	r5, #0
     d96:	2180      	movs	r1, #128	; 0x80
     d98:	0249      	lsls	r1, r1, #9
     d9a:	3801      	subs	r0, #1
     d9c:	d307      	bcc.n	dae <delay_cycles_ms+0x22>
     d9e:	2c00      	cmp	r4, #0
     da0:	d0fb      	beq.n	d9a <delay_cycles_ms+0xe>
     da2:	6054      	str	r4, [r2, #4]
     da4:	6095      	str	r5, [r2, #8]
     da6:	6813      	ldr	r3, [r2, #0]
     da8:	420b      	tst	r3, r1
     daa:	d0fc      	beq.n	da6 <delay_cycles_ms+0x1a>
     dac:	e7f5      	b.n	d9a <delay_cycles_ms+0xe>
     dae:	bd30      	pop	{r4, r5, pc}
     db0:	20000000 	.word	0x20000000
     db4:	e000e010 	.word	0xe000e010

00000db8 <nm_bsp_sleep>:
     db8:	b570      	push	{r4, r5, r6, lr}
     dba:	1e44      	subs	r4, r0, #1
     dbc:	2800      	cmp	r0, #0
     dbe:	d004      	beq.n	dca <nm_bsp_sleep+0x12>
     dc0:	4d02      	ldr	r5, [pc, #8]	; (dcc <nm_bsp_sleep+0x14>)
     dc2:	2001      	movs	r0, #1
     dc4:	47a8      	blx	r5
     dc6:	3c01      	subs	r4, #1
     dc8:	d2fb      	bcs.n	dc2 <nm_bsp_sleep+0xa>
     dca:	bd70      	pop	{r4, r5, r6, pc}
     dcc:	00000d8d 	.word	0x00000d8d

00000dd0 <nm_bsp_reset>:
     dd0:	b5f8      	push	{r3, r4, r5, r6, r7, lr}
     dd2:	4c08      	ldr	r4, [pc, #32]	; (df4 <nm_bsp_reset+0x24>)
     dd4:	2780      	movs	r7, #128	; 0x80
     dd6:	043f      	lsls	r7, r7, #16
     dd8:	6167      	str	r7, [r4, #20]
     dda:	2680      	movs	r6, #128	; 0x80
     ddc:	01b6      	lsls	r6, r6, #6
     dde:	6166      	str	r6, [r4, #20]
     de0:	2064      	movs	r0, #100	; 0x64
     de2:	4d05      	ldr	r5, [pc, #20]	; (df8 <nm_bsp_reset+0x28>)
     de4:	47a8      	blx	r5
     de6:	61a7      	str	r7, [r4, #24]
     de8:	200a      	movs	r0, #10
     dea:	47a8      	blx	r5
     dec:	61a6      	str	r6, [r4, #24]
     dee:	200a      	movs	r0, #10
     df0:	47a8      	blx	r5
     df2:	bdf8      	pop	{r3, r4, r5, r6, r7, pc}
     df4:	40002800 	.word	0x40002800
     df8:	00000db9 	.word	0x00000db9

00000dfc <nm_bsp_init>:
     dfc:	b570      	push	{r4, r5, r6, lr}
     dfe:	b082      	sub	sp, #8
     e00:	2300      	movs	r3, #0
     e02:	4a13      	ldr	r2, [pc, #76]	; (e50 <nm_bsp_init+0x54>)
     e04:	6013      	str	r3, [r2, #0]
     e06:	ac01      	add	r4, sp, #4
     e08:	2501      	movs	r5, #1
     e0a:	7065      	strb	r5, [r4, #1]
     e0c:	70a3      	strb	r3, [r4, #2]
     e0e:	7025      	strb	r5, [r4, #0]
     e10:	0021      	movs	r1, r4
     e12:	200d      	movs	r0, #13
     e14:	4e0f      	ldr	r6, [pc, #60]	; (e54 <nm_bsp_init+0x58>)
     e16:	47b0      	blx	r6
     e18:	0021      	movs	r1, r4
     e1a:	2017      	movs	r0, #23
     e1c:	47b0      	blx	r6
     e1e:	0021      	movs	r1, r4
     e20:	201c      	movs	r0, #28
     e22:	47b0      	blx	r6
     e24:	4b0c      	ldr	r3, [pc, #48]	; (e58 <nm_bsp_init+0x5c>)
     e26:	681b      	ldr	r3, [r3, #0]
     e28:	421d      	tst	r5, r3
     e2a:	d003      	beq.n	e34 <nm_bsp_init+0x38>
     e2c:	4b0a      	ldr	r3, [pc, #40]	; (e58 <nm_bsp_init+0x5c>)
     e2e:	681b      	ldr	r3, [r3, #0]
     e30:	079b      	lsls	r3, r3, #30
     e32:	d401      	bmi.n	e38 <nm_bsp_init+0x3c>
     e34:	4b09      	ldr	r3, [pc, #36]	; (e5c <nm_bsp_init+0x60>)
     e36:	4798      	blx	r3
     e38:	4b09      	ldr	r3, [pc, #36]	; (e60 <nm_bsp_init+0x64>)
     e3a:	4798      	blx	r3
     e3c:	2201      	movs	r2, #1
     e3e:	4b09      	ldr	r3, [pc, #36]	; (e64 <nm_bsp_init+0x68>)
     e40:	701a      	strb	r2, [r3, #0]
     e42:	f3bf 8f5f 	dmb	sy
     e46:	b662      	cpsie	i
     e48:	2000      	movs	r0, #0
     e4a:	b002      	add	sp, #8
     e4c:	bd70      	pop	{r4, r5, r6, pc}
     e4e:	46c0      	nop			; (mov r8, r8)
     e50:	20000098 	.word	0x20000098
     e54:	000011ed 	.word	0x000011ed
     e58:	e000e010 	.word	0xe000e010
     e5c:	00000d4d 	.word	0x00000d4d
     e60:	00000dd1 	.word	0x00000dd1
     e64:	2000000a 	.word	0x2000000a

00000e68 <nm_bus_init>:
     e68:	b530      	push	{r4, r5, lr}
     e6a:	b091      	sub	sp, #68	; 0x44
     e6c:	4c30      	ldr	r4, [pc, #192]	; (f30 <nm_bus_init+0xc8>)
     e6e:	2323      	movs	r3, #35	; 0x23
     e70:	7023      	strb	r3, [r4, #0]
     e72:	2300      	movs	r3, #0
     e74:	7063      	strb	r3, [r4, #1]
     e76:	70a3      	strb	r3, [r4, #2]
     e78:	a901      	add	r1, sp, #4
     e7a:	2201      	movs	r2, #1
     e7c:	704a      	strb	r2, [r1, #1]
     e7e:	708b      	strb	r3, [r1, #2]
     e80:	700a      	strb	r2, [r1, #0]
     e82:	2023      	movs	r0, #35	; 0x23
     e84:	4b2b      	ldr	r3, [pc, #172]	; (f34 <nm_bus_init+0xcc>)
     e86:	4798      	blx	r3
     e88:	7822      	ldrb	r2, [r4, #0]
     e8a:	09d1      	lsrs	r1, r2, #7
     e8c:	2300      	movs	r3, #0
     e8e:	2900      	cmp	r1, #0
     e90:	d104      	bne.n	e9c <nm_bus_init+0x34>
     e92:	0953      	lsrs	r3, r2, #5
     e94:	01db      	lsls	r3, r3, #7
     e96:	4928      	ldr	r1, [pc, #160]	; (f38 <nm_bus_init+0xd0>)
     e98:	468c      	mov	ip, r1
     e9a:	4463      	add	r3, ip
     e9c:	211f      	movs	r1, #31
     e9e:	4011      	ands	r1, r2
     ea0:	2201      	movs	r2, #1
     ea2:	0010      	movs	r0, r2
     ea4:	4088      	lsls	r0, r1
     ea6:	6198      	str	r0, [r3, #24]
     ea8:	ac02      	add	r4, sp, #8
     eaa:	7022      	strb	r2, [r4, #0]
     eac:	2300      	movs	r3, #0
     eae:	9303      	str	r3, [sp, #12]
     eb0:	9304      	str	r3, [sp, #16]
     eb2:	7423      	strb	r3, [r4, #16]
     eb4:	7463      	strb	r3, [r4, #17]
     eb6:	74a2      	strb	r2, [r4, #18]
     eb8:	74e2      	strb	r2, [r4, #19]
     eba:	7523      	strb	r3, [r4, #20]
     ebc:	3223      	adds	r2, #35	; 0x23
     ebe:	54a3      	strb	r3, [r4, r2]
     ec0:	3a18      	subs	r2, #24
     ec2:	2100      	movs	r1, #0
     ec4:	a808      	add	r0, sp, #32
     ec6:	4b1d      	ldr	r3, [pc, #116]	; (f3c <nm_bus_init+0xd4>)
     ec8:	4798      	blx	r3
     eca:	2380      	movs	r3, #128	; 0x80
     ecc:	025b      	lsls	r3, r3, #9
     ece:	60e3      	str	r3, [r4, #12]
     ed0:	4b1b      	ldr	r3, [pc, #108]	; (f40 <nm_bus_init+0xd8>)
     ed2:	62a3      	str	r3, [r4, #40]	; 0x28
     ed4:	2301      	movs	r3, #1
     ed6:	425b      	negs	r3, r3
     ed8:	62e3      	str	r3, [r4, #44]	; 0x2c
     eda:	4b1a      	ldr	r3, [pc, #104]	; (f44 <nm_bus_init+0xdc>)
     edc:	6323      	str	r3, [r4, #48]	; 0x30
     ede:	4b1a      	ldr	r3, [pc, #104]	; (f48 <nm_bus_init+0xe0>)
     ee0:	6363      	str	r3, [r4, #52]	; 0x34
     ee2:	4b1a      	ldr	r3, [pc, #104]	; (f4c <nm_bus_init+0xe4>)
     ee4:	61a3      	str	r3, [r4, #24]
     ee6:	0022      	movs	r2, r4
     ee8:	4919      	ldr	r1, [pc, #100]	; (f50 <nm_bus_init+0xe8>)
     eea:	481a      	ldr	r0, [pc, #104]	; (f54 <nm_bus_init+0xec>)
     eec:	4b1a      	ldr	r3, [pc, #104]	; (f58 <nm_bus_init+0xf0>)
     eee:	4798      	blx	r3
     ef0:	2800      	cmp	r0, #0
     ef2:	d11a      	bne.n	f2a <nm_bus_init+0xc2>
     ef4:	4d17      	ldr	r5, [pc, #92]	; (f54 <nm_bus_init+0xec>)
     ef6:	682c      	ldr	r4, [r5, #0]
     ef8:	0020      	movs	r0, r4
     efa:	4b18      	ldr	r3, [pc, #96]	; (f5c <nm_bus_init+0xf4>)
     efc:	4798      	blx	r3
     efe:	231f      	movs	r3, #31
     f00:	4018      	ands	r0, r3
     f02:	3b1e      	subs	r3, #30
     f04:	4083      	lsls	r3, r0
     f06:	4a16      	ldr	r2, [pc, #88]	; (f60 <nm_bus_init+0xf8>)
     f08:	6013      	str	r3, [r2, #0]
     f0a:	682a      	ldr	r2, [r5, #0]
     f0c:	69d3      	ldr	r3, [r2, #28]
     f0e:	2b00      	cmp	r3, #0
     f10:	d1fc      	bne.n	f0c <nm_bus_init+0xa4>
     f12:	6823      	ldr	r3, [r4, #0]
     f14:	2202      	movs	r2, #2
     f16:	4313      	orrs	r3, r2
     f18:	6023      	str	r3, [r4, #0]
     f1a:	4b12      	ldr	r3, [pc, #72]	; (f64 <nm_bus_init+0xfc>)
     f1c:	4798      	blx	r3
     f1e:	2001      	movs	r0, #1
     f20:	4b11      	ldr	r3, [pc, #68]	; (f68 <nm_bus_init+0x100>)
     f22:	4798      	blx	r3
     f24:	2000      	movs	r0, #0
     f26:	b011      	add	sp, #68	; 0x44
     f28:	bd30      	pop	{r4, r5, pc}
     f2a:	2006      	movs	r0, #6
     f2c:	4240      	negs	r0, r0
     f2e:	e7fa      	b.n	f26 <nm_bus_init+0xbe>
     f30:	20000568 	.word	0x20000568
     f34:	000011ed 	.word	0x000011ed
     f38:	40002800 	.word	0x40002800
     f3c:	0000342b 	.word	0x0000342b
     f40:	00220003 	.word	0x00220003
     f44:	00360003 	.word	0x00360003
     f48:	00370003 	.word	0x00370003
     f4c:	00b71b00 	.word	0x00b71b00
     f50:	43000400 	.word	0x43000400
     f54:	2000056c 	.word	0x2000056c
     f58:	00001651 	.word	0x00001651
     f5c:	000015c1 	.word	0x000015c1
     f60:	e000e100 	.word	0xe000e100
     f64:	00000dd1 	.word	0x00000dd1
     f68:	00000db9 	.word	0x00000db9

00000f6c <nm_bus_ioctl>:
     f6c:	b5f0      	push	{r4, r5, r6, r7, lr}
     f6e:	46de      	mov	lr, fp
     f70:	4657      	mov	r7, sl
     f72:	464e      	mov	r6, r9
     f74:	4645      	mov	r5, r8
     f76:	b5e0      	push	{r5, r6, r7, lr}
     f78:	b083      	sub	sp, #12
     f7a:	2803      	cmp	r0, #3
     f7c:	d000      	beq.n	f80 <nm_bus_ioctl+0x14>
     f7e:	e074      	b.n	106a <nm_bus_ioctl+0xfe>
     f80:	680e      	ldr	r6, [r1, #0]
     f82:	684d      	ldr	r5, [r1, #4]
     f84:	890c      	ldrh	r4, [r1, #8]
     f86:	2200      	movs	r2, #0
     f88:	466b      	mov	r3, sp
     f8a:	71da      	strb	r2, [r3, #7]
     f8c:	2d00      	cmp	r5, #0
     f8e:	d026      	beq.n	fde <nm_bus_ioctl+0x72>
     f90:	2c00      	cmp	r4, #0
     f92:	d064      	beq.n	105e <nm_bus_ioctl+0xf2>
     f94:	2e00      	cmp	r6, #0
     f96:	d06b      	beq.n	1070 <nm_bus_ioctl+0x104>
     f98:	2300      	movs	r3, #0
     f9a:	4698      	mov	r8, r3
     f9c:	2300      	movs	r3, #0
     f9e:	469b      	mov	fp, r3
     fa0:	2201      	movs	r2, #1
     fa2:	4936      	ldr	r1, [pc, #216]	; (107c <nm_bus_ioctl+0x110>)
     fa4:	4836      	ldr	r0, [pc, #216]	; (1080 <nm_bus_ioctl+0x114>)
     fa6:	4b37      	ldr	r3, [pc, #220]	; (1084 <nm_bus_ioctl+0x118>)
     fa8:	4798      	blx	r3
     faa:	4b35      	ldr	r3, [pc, #212]	; (1080 <nm_bus_ioctl+0x114>)
     fac:	469a      	mov	sl, r3
     fae:	2701      	movs	r7, #1
     fb0:	2204      	movs	r2, #4
     fb2:	4699      	mov	r9, r3
     fb4:	4659      	mov	r1, fp
     fb6:	424b      	negs	r3, r1
     fb8:	4159      	adcs	r1, r3
     fba:	468b      	mov	fp, r1
     fbc:	7830      	ldrb	r0, [r6, #0]
     fbe:	4653      	mov	r3, sl
     fc0:	681b      	ldr	r3, [r3, #0]
     fc2:	7e19      	ldrb	r1, [r3, #24]
     fc4:	4239      	tst	r1, r7
     fc6:	d0fc      	beq.n	fc2 <nm_bus_ioctl+0x56>
     fc8:	7e19      	ldrb	r1, [r3, #24]
     fca:	4239      	tst	r1, r7
     fcc:	d0fc      	beq.n	fc8 <nm_bus_ioctl+0x5c>
     fce:	6298      	str	r0, [r3, #40]	; 0x28
     fd0:	7e19      	ldrb	r1, [r3, #24]
     fd2:	4211      	tst	r1, r2
     fd4:	d0fc      	beq.n	fd0 <nm_bus_ioctl+0x64>
     fd6:	4649      	mov	r1, r9
     fd8:	7989      	ldrb	r1, [r1, #6]
     fda:	468c      	mov	ip, r1
     fdc:	e011      	b.n	1002 <nm_bus_ioctl+0x96>
     fde:	2e00      	cmp	r6, #0
     fe0:	d03a      	beq.n	1058 <nm_bus_ioctl+0xec>
     fe2:	2c00      	cmp	r4, #0
     fe4:	d03e      	beq.n	1064 <nm_bus_ioctl+0xf8>
     fe6:	2300      	movs	r3, #0
     fe8:	4698      	mov	r8, r3
     fea:	3301      	adds	r3, #1
     fec:	469b      	mov	fp, r3
     fee:	466b      	mov	r3, sp
     ff0:	1ddd      	adds	r5, r3, #7
     ff2:	e7d5      	b.n	fa0 <nm_bus_ioctl+0x34>
     ff4:	4660      	mov	r0, ip
     ff6:	2801      	cmp	r0, #1
     ff8:	d00d      	beq.n	1016 <nm_bus_ioctl+0xaa>
     ffa:	6a98      	ldr	r0, [r3, #40]	; 0x28
     ffc:	b2c0      	uxtb	r0, r0
     ffe:	2900      	cmp	r1, #0
    1000:	d00d      	beq.n	101e <nm_bus_ioctl+0xb2>
    1002:	7e19      	ldrb	r1, [r3, #24]
    1004:	4211      	tst	r1, r2
    1006:	d0fc      	beq.n	1002 <nm_bus_ioctl+0x96>
    1008:	8b58      	ldrh	r0, [r3, #26]
    100a:	2100      	movs	r1, #0
    100c:	4210      	tst	r0, r2
    100e:	d0f1      	beq.n	ff4 <nm_bus_ioctl+0x88>
    1010:	835a      	strh	r2, [r3, #26]
    1012:	311e      	adds	r1, #30
    1014:	e7ee      	b.n	ff4 <nm_bus_ioctl+0x88>
    1016:	6a98      	ldr	r0, [r3, #40]	; 0x28
    1018:	05c0      	lsls	r0, r0, #23
    101a:	0dc0      	lsrs	r0, r0, #23
    101c:	e7ef      	b.n	ffe <nm_bus_ioctl+0x92>
    101e:	7028      	strb	r0, [r5, #0]
    1020:	3c01      	subs	r4, #1
    1022:	b2a4      	uxth	r4, r4
    1024:	445d      	add	r5, fp
    1026:	4643      	mov	r3, r8
    1028:	4259      	negs	r1, r3
    102a:	414b      	adcs	r3, r1
    102c:	18f6      	adds	r6, r6, r3
    102e:	2c00      	cmp	r4, #0
    1030:	d1c4      	bne.n	fbc <nm_bus_ioctl+0x50>
    1032:	4b13      	ldr	r3, [pc, #76]	; (1080 <nm_bus_ioctl+0x114>)
    1034:	6819      	ldr	r1, [r3, #0]
    1036:	2202      	movs	r2, #2
    1038:	7e0b      	ldrb	r3, [r1, #24]
    103a:	4213      	tst	r3, r2
    103c:	d0fc      	beq.n	1038 <nm_bus_ioctl+0xcc>
    103e:	2200      	movs	r2, #0
    1040:	490e      	ldr	r1, [pc, #56]	; (107c <nm_bus_ioctl+0x110>)
    1042:	480f      	ldr	r0, [pc, #60]	; (1080 <nm_bus_ioctl+0x114>)
    1044:	4b0f      	ldr	r3, [pc, #60]	; (1084 <nm_bus_ioctl+0x118>)
    1046:	4798      	blx	r3
    1048:	2000      	movs	r0, #0
    104a:	b003      	add	sp, #12
    104c:	bc3c      	pop	{r2, r3, r4, r5}
    104e:	4690      	mov	r8, r2
    1050:	4699      	mov	r9, r3
    1052:	46a2      	mov	sl, r4
    1054:	46ab      	mov	fp, r5
    1056:	bdf0      	pop	{r4, r5, r6, r7, pc}
    1058:	200f      	movs	r0, #15
    105a:	4240      	negs	r0, r0
    105c:	e7f5      	b.n	104a <nm_bus_ioctl+0xde>
    105e:	200f      	movs	r0, #15
    1060:	4240      	negs	r0, r0
    1062:	e7f2      	b.n	104a <nm_bus_ioctl+0xde>
    1064:	200f      	movs	r0, #15
    1066:	4240      	negs	r0, r0
    1068:	e7ef      	b.n	104a <nm_bus_ioctl+0xde>
    106a:	2001      	movs	r0, #1
    106c:	4240      	negs	r0, r0
    106e:	e7ec      	b.n	104a <nm_bus_ioctl+0xde>
    1070:	2301      	movs	r3, #1
    1072:	4698      	mov	r8, r3
    1074:	466b      	mov	r3, sp
    1076:	1dde      	adds	r6, r3, #7
    1078:	e790      	b.n	f9c <nm_bus_ioctl+0x30>
    107a:	46c0      	nop			; (mov r8, r8)
    107c:	20000568 	.word	0x20000568
    1080:	2000056c 	.word	0x2000056c
    1084:	0000183d 	.word	0x0000183d

00001088 <cpu_irq_enter_critical>:
    1088:	4b0c      	ldr	r3, [pc, #48]	; (10bc <cpu_irq_enter_critical+0x34>)
    108a:	681b      	ldr	r3, [r3, #0]
    108c:	2b00      	cmp	r3, #0
    108e:	d106      	bne.n	109e <cpu_irq_enter_critical+0x16>
    1090:	f3ef 8310 	mrs	r3, PRIMASK
    1094:	2b00      	cmp	r3, #0
    1096:	d007      	beq.n	10a8 <cpu_irq_enter_critical+0x20>
    1098:	2200      	movs	r2, #0
    109a:	4b09      	ldr	r3, [pc, #36]	; (10c0 <cpu_irq_enter_critical+0x38>)
    109c:	701a      	strb	r2, [r3, #0]
    109e:	4a07      	ldr	r2, [pc, #28]	; (10bc <cpu_irq_enter_critical+0x34>)
    10a0:	6813      	ldr	r3, [r2, #0]
    10a2:	3301      	adds	r3, #1
    10a4:	6013      	str	r3, [r2, #0]
    10a6:	4770      	bx	lr
    10a8:	b672      	cpsid	i
    10aa:	f3bf 8f5f 	dmb	sy
    10ae:	2200      	movs	r2, #0
    10b0:	4b04      	ldr	r3, [pc, #16]	; (10c4 <cpu_irq_enter_critical+0x3c>)
    10b2:	701a      	strb	r2, [r3, #0]
    10b4:	3201      	adds	r2, #1
    10b6:	4b02      	ldr	r3, [pc, #8]	; (10c0 <cpu_irq_enter_critical+0x38>)
    10b8:	701a      	strb	r2, [r3, #0]
    10ba:	e7f0      	b.n	109e <cpu_irq_enter_critical+0x16>
    10bc:	2000009c 	.word	0x2000009c
    10c0:	200000a0 	.word	0x200000a0
    10c4:	2000000a 	.word	0x2000000a

000010c8 <cpu_irq_leave_critical>:
    10c8:	4b08      	ldr	r3, [pc, #32]	; (10ec <cpu_irq_leave_critical+0x24>)
    10ca:	681a      	ldr	r2, [r3, #0]
    10cc:	3a01      	subs	r2, #1
    10ce:	601a      	str	r2, [r3, #0]
    10d0:	681b      	ldr	r3, [r3, #0]
    10d2:	2b00      	cmp	r3, #0
    10d4:	d109      	bne.n	10ea <cpu_irq_leave_critical+0x22>
    10d6:	4b06      	ldr	r3, [pc, #24]	; (10f0 <cpu_irq_leave_critical+0x28>)
    10d8:	781b      	ldrb	r3, [r3, #0]
    10da:	2b00      	cmp	r3, #0
    10dc:	d005      	beq.n	10ea <cpu_irq_leave_critical+0x22>
    10de:	2201      	movs	r2, #1
    10e0:	4b04      	ldr	r3, [pc, #16]	; (10f4 <cpu_irq_leave_critical+0x2c>)
    10e2:	701a      	strb	r2, [r3, #0]
    10e4:	f3bf 8f5f 	dmb	sy
    10e8:	b662      	cpsie	i
    10ea:	4770      	bx	lr
    10ec:	2000009c 	.word	0x2000009c
    10f0:	200000a0 	.word	0x200000a0
    10f4:	2000000a 	.word	0x2000000a

000010f8 <EIC_Handler>:
    10f8:	b570      	push	{r4, r5, r6, lr}
    10fa:	2200      	movs	r2, #0
    10fc:	4b10      	ldr	r3, [pc, #64]	; (1140 <EIC_Handler+0x48>)
    10fe:	701a      	strb	r2, [r3, #0]
    1100:	2300      	movs	r3, #0
    1102:	4910      	ldr	r1, [pc, #64]	; (1144 <EIC_Handler+0x4c>)
    1104:	251f      	movs	r5, #31
    1106:	4e10      	ldr	r6, [pc, #64]	; (1148 <EIC_Handler+0x50>)
    1108:	4c0d      	ldr	r4, [pc, #52]	; (1140 <EIC_Handler+0x48>)
    110a:	e00a      	b.n	1122 <EIC_Handler+0x2a>
    110c:	490d      	ldr	r1, [pc, #52]	; (1144 <EIC_Handler+0x4c>)
    110e:	e008      	b.n	1122 <EIC_Handler+0x2a>
    1110:	7823      	ldrb	r3, [r4, #0]
    1112:	3301      	adds	r3, #1
    1114:	b2db      	uxtb	r3, r3
    1116:	7023      	strb	r3, [r4, #0]
    1118:	2b0f      	cmp	r3, #15
    111a:	d810      	bhi.n	113e <EIC_Handler+0x46>
    111c:	2100      	movs	r1, #0
    111e:	2b1f      	cmp	r3, #31
    1120:	d9f4      	bls.n	110c <EIC_Handler+0x14>
    1122:	0028      	movs	r0, r5
    1124:	4018      	ands	r0, r3
    1126:	2201      	movs	r2, #1
    1128:	4082      	lsls	r2, r0
    112a:	6948      	ldr	r0, [r1, #20]
    112c:	4210      	tst	r0, r2
    112e:	d0ef      	beq.n	1110 <EIC_Handler+0x18>
    1130:	614a      	str	r2, [r1, #20]
    1132:	009b      	lsls	r3, r3, #2
    1134:	599b      	ldr	r3, [r3, r6]
    1136:	2b00      	cmp	r3, #0
    1138:	d0ea      	beq.n	1110 <EIC_Handler+0x18>
    113a:	4798      	blx	r3
    113c:	e7e8      	b.n	1110 <EIC_Handler+0x18>
    113e:	bd70      	pop	{r4, r5, r6, pc}
    1140:	200005a8 	.word	0x200005a8
    1144:	40002400 	.word	0x40002400
    1148:	200005ac 	.word	0x200005ac

0000114c <_extint_enable>:
    114c:	4a06      	ldr	r2, [pc, #24]	; (1168 <_extint_enable+0x1c>)
    114e:	7813      	ldrb	r3, [r2, #0]
    1150:	2102      	movs	r1, #2
    1152:	430b      	orrs	r3, r1
    1154:	7013      	strb	r3, [r2, #0]
    1156:	2001      	movs	r0, #1
    1158:	6853      	ldr	r3, [r2, #4]
    115a:	4219      	tst	r1, r3
    115c:	d1fc      	bne.n	1158 <_extint_enable+0xc>
    115e:	6853      	ldr	r3, [r2, #4]
    1160:	4218      	tst	r0, r3
    1162:	d1f9      	bne.n	1158 <_extint_enable+0xc>
    1164:	4770      	bx	lr
    1166:	46c0      	nop			; (mov r8, r8)
    1168:	40002400 	.word	0x40002400

0000116c <_system_extint_init>:
    116c:	b500      	push	{lr}
    116e:	b083      	sub	sp, #12
    1170:	4a17      	ldr	r2, [pc, #92]	; (11d0 <_system_extint_init+0x64>)
    1172:	6951      	ldr	r1, [r2, #20]
    1174:	2380      	movs	r3, #128	; 0x80
    1176:	009b      	lsls	r3, r3, #2
    1178:	430b      	orrs	r3, r1
    117a:	6153      	str	r3, [r2, #20]
    117c:	a901      	add	r1, sp, #4
    117e:	2300      	movs	r3, #0
    1180:	700b      	strb	r3, [r1, #0]
    1182:	2003      	movs	r0, #3
    1184:	4b13      	ldr	r3, [pc, #76]	; (11d4 <_system_extint_init+0x68>)
    1186:	4798      	blx	r3
    1188:	2003      	movs	r0, #3
    118a:	4b13      	ldr	r3, [pc, #76]	; (11d8 <_system_extint_init+0x6c>)
    118c:	4798      	blx	r3
    118e:	4a13      	ldr	r2, [pc, #76]	; (11dc <_system_extint_init+0x70>)
    1190:	7813      	ldrb	r3, [r2, #0]
    1192:	2101      	movs	r1, #1
    1194:	430b      	orrs	r3, r1
    1196:	7013      	strb	r3, [r2, #0]
    1198:	3101      	adds	r1, #1
    119a:	2001      	movs	r0, #1
    119c:	6853      	ldr	r3, [r2, #4]
    119e:	4219      	tst	r1, r3
    11a0:	d1fc      	bne.n	119c <_system_extint_init+0x30>
    11a2:	6853      	ldr	r3, [r2, #4]
    11a4:	4218      	tst	r0, r3
    11a6:	d1f9      	bne.n	119c <_system_extint_init+0x30>
    11a8:	4a0c      	ldr	r2, [pc, #48]	; (11dc <_system_extint_init+0x70>)
    11aa:	7813      	ldrb	r3, [r2, #0]
    11ac:	2110      	movs	r1, #16
    11ae:	438b      	bics	r3, r1
    11b0:	7013      	strb	r3, [r2, #0]
    11b2:	4b0b      	ldr	r3, [pc, #44]	; (11e0 <_system_extint_init+0x74>)
    11b4:	0019      	movs	r1, r3
    11b6:	3140      	adds	r1, #64	; 0x40
    11b8:	2200      	movs	r2, #0
    11ba:	c304      	stmia	r3!, {r2}
    11bc:	428b      	cmp	r3, r1
    11be:	d1fc      	bne.n	11ba <_system_extint_init+0x4e>
    11c0:	2208      	movs	r2, #8
    11c2:	4b08      	ldr	r3, [pc, #32]	; (11e4 <_system_extint_init+0x78>)
    11c4:	601a      	str	r2, [r3, #0]
    11c6:	4b08      	ldr	r3, [pc, #32]	; (11e8 <_system_extint_init+0x7c>)
    11c8:	4798      	blx	r3
    11ca:	b003      	add	sp, #12
    11cc:	bd00      	pop	{pc}
    11ce:	46c0      	nop			; (mov r8, r8)
    11d0:	40000400 	.word	0x40000400
    11d4:	000028d1 	.word	0x000028d1
    11d8:	00002861 	.word	0x00002861
    11dc:	40002400 	.word	0x40002400
    11e0:	200005ac 	.word	0x200005ac
    11e4:	e000e100 	.word	0xe000e100
    11e8:	0000114d 	.word	0x0000114d

000011ec <port_pin_set_config>:
    11ec:	b500      	push	{lr}
    11ee:	b083      	sub	sp, #12
    11f0:	ab01      	add	r3, sp, #4
    11f2:	2280      	movs	r2, #128	; 0x80
    11f4:	701a      	strb	r2, [r3, #0]
    11f6:	780a      	ldrb	r2, [r1, #0]
    11f8:	705a      	strb	r2, [r3, #1]
    11fa:	784a      	ldrb	r2, [r1, #1]
    11fc:	709a      	strb	r2, [r3, #2]
    11fe:	788a      	ldrb	r2, [r1, #2]
    1200:	70da      	strb	r2, [r3, #3]
    1202:	0019      	movs	r1, r3
    1204:	4b01      	ldr	r3, [pc, #4]	; (120c <port_pin_set_config+0x20>)
    1206:	4798      	blx	r3
    1208:	b003      	add	sp, #12
    120a:	bd00      	pop	{pc}
    120c:	000029cd 	.word	0x000029cd

00001210 <long_division>:
    1210:	b5f0      	push	{r4, r5, r6, r7, lr}
    1212:	46de      	mov	lr, fp
    1214:	4657      	mov	r7, sl
    1216:	464e      	mov	r6, r9
    1218:	4645      	mov	r5, r8
    121a:	b5e0      	push	{r5, r6, r7, lr}
    121c:	b087      	sub	sp, #28
    121e:	4680      	mov	r8, r0
    1220:	9104      	str	r1, [sp, #16]
    1222:	0016      	movs	r6, r2
    1224:	001f      	movs	r7, r3
    1226:	2200      	movs	r2, #0
    1228:	2300      	movs	r3, #0
    122a:	2100      	movs	r1, #0
    122c:	468b      	mov	fp, r1
    122e:	243f      	movs	r4, #63	; 0x3f
    1230:	2001      	movs	r0, #1
    1232:	0021      	movs	r1, r4
    1234:	9600      	str	r6, [sp, #0]
    1236:	9701      	str	r7, [sp, #4]
    1238:	465c      	mov	r4, fp
    123a:	9403      	str	r4, [sp, #12]
    123c:	4644      	mov	r4, r8
    123e:	9405      	str	r4, [sp, #20]
    1240:	e013      	b.n	126a <long_division+0x5a>
    1242:	2420      	movs	r4, #32
    1244:	1a64      	subs	r4, r4, r1
    1246:	0005      	movs	r5, r0
    1248:	40e5      	lsrs	r5, r4
    124a:	46a8      	mov	r8, r5
    124c:	e014      	b.n	1278 <long_division+0x68>
    124e:	9c00      	ldr	r4, [sp, #0]
    1250:	9d01      	ldr	r5, [sp, #4]
    1252:	1b12      	subs	r2, r2, r4
    1254:	41ab      	sbcs	r3, r5
    1256:	465c      	mov	r4, fp
    1258:	464d      	mov	r5, r9
    125a:	432c      	orrs	r4, r5
    125c:	46a3      	mov	fp, r4
    125e:	9c03      	ldr	r4, [sp, #12]
    1260:	4645      	mov	r5, r8
    1262:	432c      	orrs	r4, r5
    1264:	9403      	str	r4, [sp, #12]
    1266:	3901      	subs	r1, #1
    1268:	d325      	bcc.n	12b6 <long_division+0xa6>
    126a:	2420      	movs	r4, #32
    126c:	4264      	negs	r4, r4
    126e:	190c      	adds	r4, r1, r4
    1270:	d4e7      	bmi.n	1242 <long_division+0x32>
    1272:	0005      	movs	r5, r0
    1274:	40a5      	lsls	r5, r4
    1276:	46a8      	mov	r8, r5
    1278:	0004      	movs	r4, r0
    127a:	408c      	lsls	r4, r1
    127c:	46a1      	mov	r9, r4
    127e:	1892      	adds	r2, r2, r2
    1280:	415b      	adcs	r3, r3
    1282:	0014      	movs	r4, r2
    1284:	001d      	movs	r5, r3
    1286:	9e05      	ldr	r6, [sp, #20]
    1288:	464f      	mov	r7, r9
    128a:	403e      	ands	r6, r7
    128c:	46b4      	mov	ip, r6
    128e:	9e04      	ldr	r6, [sp, #16]
    1290:	4647      	mov	r7, r8
    1292:	403e      	ands	r6, r7
    1294:	46b2      	mov	sl, r6
    1296:	4666      	mov	r6, ip
    1298:	4657      	mov	r7, sl
    129a:	433e      	orrs	r6, r7
    129c:	d003      	beq.n	12a6 <long_division+0x96>
    129e:	0006      	movs	r6, r0
    12a0:	4326      	orrs	r6, r4
    12a2:	0032      	movs	r2, r6
    12a4:	002b      	movs	r3, r5
    12a6:	9c00      	ldr	r4, [sp, #0]
    12a8:	9d01      	ldr	r5, [sp, #4]
    12aa:	429d      	cmp	r5, r3
    12ac:	d8db      	bhi.n	1266 <long_division+0x56>
    12ae:	d1ce      	bne.n	124e <long_division+0x3e>
    12b0:	4294      	cmp	r4, r2
    12b2:	d8d8      	bhi.n	1266 <long_division+0x56>
    12b4:	e7cb      	b.n	124e <long_division+0x3e>
    12b6:	9b03      	ldr	r3, [sp, #12]
    12b8:	4658      	mov	r0, fp
    12ba:	0019      	movs	r1, r3
    12bc:	b007      	add	sp, #28
    12be:	bc3c      	pop	{r2, r3, r4, r5}
    12c0:	4690      	mov	r8, r2
    12c2:	4699      	mov	r9, r3
    12c4:	46a2      	mov	sl, r4
    12c6:	46ab      	mov	fp, r5
    12c8:	bdf0      	pop	{r4, r5, r6, r7, pc}

000012ca <_sercom_get_sync_baud_val>:
    12ca:	b510      	push	{r4, lr}
    12cc:	0849      	lsrs	r1, r1, #1
    12ce:	2340      	movs	r3, #64	; 0x40
    12d0:	2400      	movs	r4, #0
    12d2:	4281      	cmp	r1, r0
    12d4:	d202      	bcs.n	12dc <_sercom_get_sync_baud_val+0x12>
    12d6:	0018      	movs	r0, r3
    12d8:	bd10      	pop	{r4, pc}
    12da:	001c      	movs	r4, r3
    12dc:	1a09      	subs	r1, r1, r0
    12de:	1c63      	adds	r3, r4, #1
    12e0:	b29b      	uxth	r3, r3
    12e2:	4288      	cmp	r0, r1
    12e4:	d9f9      	bls.n	12da <_sercom_get_sync_baud_val+0x10>
    12e6:	2340      	movs	r3, #64	; 0x40
    12e8:	2cff      	cmp	r4, #255	; 0xff
    12ea:	d8f4      	bhi.n	12d6 <_sercom_get_sync_baud_val+0xc>
    12ec:	8014      	strh	r4, [r2, #0]
    12ee:	2300      	movs	r3, #0
    12f0:	e7f1      	b.n	12d6 <_sercom_get_sync_baud_val+0xc>
	...

000012f4 <_sercom_get_async_baud_val>:
    12f4:	b5f0      	push	{r4, r5, r6, r7, lr}
    12f6:	b083      	sub	sp, #12
    12f8:	000f      	movs	r7, r1
    12fa:	0016      	movs	r6, r2
    12fc:	aa08      	add	r2, sp, #32
    12fe:	7811      	ldrb	r1, [r2, #0]
    1300:	0004      	movs	r4, r0
    1302:	434c      	muls	r4, r1
    1304:	2240      	movs	r2, #64	; 0x40
    1306:	42bc      	cmp	r4, r7
    1308:	d902      	bls.n	1310 <_sercom_get_async_baud_val+0x1c>
    130a:	0010      	movs	r0, r2
    130c:	b003      	add	sp, #12
    130e:	bdf0      	pop	{r4, r5, r6, r7, pc}
    1310:	2b00      	cmp	r3, #0
    1312:	d114      	bne.n	133e <_sercom_get_async_baud_val+0x4a>
    1314:	0002      	movs	r2, r0
    1316:	0008      	movs	r0, r1
    1318:	2100      	movs	r1, #0
    131a:	4c19      	ldr	r4, [pc, #100]	; (1380 <_sercom_get_async_baud_val+0x8c>)
    131c:	47a0      	blx	r4
    131e:	0001      	movs	r1, r0
    1320:	003a      	movs	r2, r7
    1322:	2300      	movs	r3, #0
    1324:	2000      	movs	r0, #0
    1326:	4c17      	ldr	r4, [pc, #92]	; (1384 <_sercom_get_async_baud_val+0x90>)
    1328:	47a0      	blx	r4
    132a:	2200      	movs	r2, #0
    132c:	2301      	movs	r3, #1
    132e:	1a12      	subs	r2, r2, r0
    1330:	418b      	sbcs	r3, r1
    1332:	0c12      	lsrs	r2, r2, #16
    1334:	041b      	lsls	r3, r3, #16
    1336:	431a      	orrs	r2, r3
    1338:	8032      	strh	r2, [r6, #0]
    133a:	2200      	movs	r2, #0
    133c:	e7e5      	b.n	130a <_sercom_get_async_baud_val+0x16>
    133e:	2200      	movs	r2, #0
    1340:	2b01      	cmp	r3, #1
    1342:	d1f9      	bne.n	1338 <_sercom_get_async_baud_val+0x44>
    1344:	000a      	movs	r2, r1
    1346:	2300      	movs	r3, #0
    1348:	2100      	movs	r1, #0
    134a:	4c0d      	ldr	r4, [pc, #52]	; (1380 <_sercom_get_async_baud_val+0x8c>)
    134c:	47a0      	blx	r4
    134e:	0002      	movs	r2, r0
    1350:	000b      	movs	r3, r1
    1352:	9200      	str	r2, [sp, #0]
    1354:	9301      	str	r3, [sp, #4]
    1356:	0038      	movs	r0, r7
    1358:	2100      	movs	r1, #0
    135a:	4c0a      	ldr	r4, [pc, #40]	; (1384 <_sercom_get_async_baud_val+0x90>)
    135c:	47a0      	blx	r4
    135e:	0005      	movs	r5, r0
    1360:	2380      	movs	r3, #128	; 0x80
    1362:	019b      	lsls	r3, r3, #6
    1364:	2240      	movs	r2, #64	; 0x40
    1366:	4298      	cmp	r0, r3
    1368:	d8cf      	bhi.n	130a <_sercom_get_async_baud_val+0x16>
    136a:	0f79      	lsrs	r1, r7, #29
    136c:	00f8      	lsls	r0, r7, #3
    136e:	9a00      	ldr	r2, [sp, #0]
    1370:	9b01      	ldr	r3, [sp, #4]
    1372:	47a0      	blx	r4
    1374:	00ea      	lsls	r2, r5, #3
    1376:	1a82      	subs	r2, r0, r2
    1378:	b2d2      	uxtb	r2, r2
    137a:	0352      	lsls	r2, r2, #13
    137c:	432a      	orrs	r2, r5
    137e:	e7db      	b.n	1338 <_sercom_get_async_baud_val+0x44>
    1380:	00003369 	.word	0x00003369
    1384:	00001211 	.word	0x00001211

00001388 <sercom_set_gclk_generator>:
    1388:	b510      	push	{r4, lr}
    138a:	b082      	sub	sp, #8
    138c:	0004      	movs	r4, r0
    138e:	4b0e      	ldr	r3, [pc, #56]	; (13c8 <sercom_set_gclk_generator+0x40>)
    1390:	781b      	ldrb	r3, [r3, #0]
    1392:	2b00      	cmp	r3, #0
    1394:	d007      	beq.n	13a6 <sercom_set_gclk_generator+0x1e>
    1396:	2900      	cmp	r1, #0
    1398:	d105      	bne.n	13a6 <sercom_set_gclk_generator+0x1e>
    139a:	4b0b      	ldr	r3, [pc, #44]	; (13c8 <sercom_set_gclk_generator+0x40>)
    139c:	785b      	ldrb	r3, [r3, #1]
    139e:	4283      	cmp	r3, r0
    13a0:	d010      	beq.n	13c4 <sercom_set_gclk_generator+0x3c>
    13a2:	201d      	movs	r0, #29
    13a4:	e00c      	b.n	13c0 <sercom_set_gclk_generator+0x38>
    13a6:	a901      	add	r1, sp, #4
    13a8:	700c      	strb	r4, [r1, #0]
    13aa:	2011      	movs	r0, #17
    13ac:	4b07      	ldr	r3, [pc, #28]	; (13cc <sercom_set_gclk_generator+0x44>)
    13ae:	4798      	blx	r3
    13b0:	2011      	movs	r0, #17
    13b2:	4b07      	ldr	r3, [pc, #28]	; (13d0 <sercom_set_gclk_generator+0x48>)
    13b4:	4798      	blx	r3
    13b6:	4b04      	ldr	r3, [pc, #16]	; (13c8 <sercom_set_gclk_generator+0x40>)
    13b8:	705c      	strb	r4, [r3, #1]
    13ba:	2201      	movs	r2, #1
    13bc:	701a      	strb	r2, [r3, #0]
    13be:	2000      	movs	r0, #0
    13c0:	b002      	add	sp, #8
    13c2:	bd10      	pop	{r4, pc}
    13c4:	2000      	movs	r0, #0
    13c6:	e7fb      	b.n	13c0 <sercom_set_gclk_generator+0x38>
    13c8:	200000a4 	.word	0x200000a4
    13cc:	000028d1 	.word	0x000028d1
    13d0:	00002861 	.word	0x00002861

000013d4 <_sercom_get_default_pad>:
    13d4:	4b40      	ldr	r3, [pc, #256]	; (14d8 <_sercom_get_default_pad+0x104>)
    13d6:	4298      	cmp	r0, r3
    13d8:	d032      	beq.n	1440 <_sercom_get_default_pad+0x6c>
    13da:	d90a      	bls.n	13f2 <_sercom_get_default_pad+0x1e>
    13dc:	4b3f      	ldr	r3, [pc, #252]	; (14dc <_sercom_get_default_pad+0x108>)
    13de:	4298      	cmp	r0, r3
    13e0:	d04e      	beq.n	1480 <_sercom_get_default_pad+0xac>
    13e2:	4b3f      	ldr	r3, [pc, #252]	; (14e0 <_sercom_get_default_pad+0x10c>)
    13e4:	4298      	cmp	r0, r3
    13e6:	d05b      	beq.n	14a0 <_sercom_get_default_pad+0xcc>
    13e8:	4b3e      	ldr	r3, [pc, #248]	; (14e4 <_sercom_get_default_pad+0x110>)
    13ea:	4298      	cmp	r0, r3
    13ec:	d038      	beq.n	1460 <_sercom_get_default_pad+0x8c>
    13ee:	2000      	movs	r0, #0
    13f0:	4770      	bx	lr
    13f2:	2384      	movs	r3, #132	; 0x84
    13f4:	05db      	lsls	r3, r3, #23
    13f6:	4298      	cmp	r0, r3
    13f8:	d00c      	beq.n	1414 <_sercom_get_default_pad+0x40>
    13fa:	4b3b      	ldr	r3, [pc, #236]	; (14e8 <_sercom_get_default_pad+0x114>)
    13fc:	4298      	cmp	r0, r3
    13fe:	d1f6      	bne.n	13ee <_sercom_get_default_pad+0x1a>
    1400:	2901      	cmp	r1, #1
    1402:	d017      	beq.n	1434 <_sercom_get_default_pad+0x60>
    1404:	2900      	cmp	r1, #0
    1406:	d05d      	beq.n	14c4 <_sercom_get_default_pad+0xf0>
    1408:	2902      	cmp	r1, #2
    140a:	d015      	beq.n	1438 <_sercom_get_default_pad+0x64>
    140c:	2903      	cmp	r1, #3
    140e:	d015      	beq.n	143c <_sercom_get_default_pad+0x68>
    1410:	2000      	movs	r0, #0
    1412:	e7ed      	b.n	13f0 <_sercom_get_default_pad+0x1c>
    1414:	2901      	cmp	r1, #1
    1416:	d007      	beq.n	1428 <_sercom_get_default_pad+0x54>
    1418:	2900      	cmp	r1, #0
    141a:	d051      	beq.n	14c0 <_sercom_get_default_pad+0xec>
    141c:	2902      	cmp	r1, #2
    141e:	d005      	beq.n	142c <_sercom_get_default_pad+0x58>
    1420:	2903      	cmp	r1, #3
    1422:	d005      	beq.n	1430 <_sercom_get_default_pad+0x5c>
    1424:	2000      	movs	r0, #0
    1426:	e7e3      	b.n	13f0 <_sercom_get_default_pad+0x1c>
    1428:	4830      	ldr	r0, [pc, #192]	; (14ec <_sercom_get_default_pad+0x118>)
    142a:	e7e1      	b.n	13f0 <_sercom_get_default_pad+0x1c>
    142c:	4830      	ldr	r0, [pc, #192]	; (14f0 <_sercom_get_default_pad+0x11c>)
    142e:	e7df      	b.n	13f0 <_sercom_get_default_pad+0x1c>
    1430:	4830      	ldr	r0, [pc, #192]	; (14f4 <_sercom_get_default_pad+0x120>)
    1432:	e7dd      	b.n	13f0 <_sercom_get_default_pad+0x1c>
    1434:	4830      	ldr	r0, [pc, #192]	; (14f8 <_sercom_get_default_pad+0x124>)
    1436:	e7db      	b.n	13f0 <_sercom_get_default_pad+0x1c>
    1438:	4830      	ldr	r0, [pc, #192]	; (14fc <_sercom_get_default_pad+0x128>)
    143a:	e7d9      	b.n	13f0 <_sercom_get_default_pad+0x1c>
    143c:	4830      	ldr	r0, [pc, #192]	; (1500 <_sercom_get_default_pad+0x12c>)
    143e:	e7d7      	b.n	13f0 <_sercom_get_default_pad+0x1c>
    1440:	2901      	cmp	r1, #1
    1442:	d007      	beq.n	1454 <_sercom_get_default_pad+0x80>
    1444:	2900      	cmp	r1, #0
    1446:	d03f      	beq.n	14c8 <_sercom_get_default_pad+0xf4>
    1448:	2902      	cmp	r1, #2
    144a:	d005      	beq.n	1458 <_sercom_get_default_pad+0x84>
    144c:	2903      	cmp	r1, #3
    144e:	d005      	beq.n	145c <_sercom_get_default_pad+0x88>
    1450:	2000      	movs	r0, #0
    1452:	e7cd      	b.n	13f0 <_sercom_get_default_pad+0x1c>
    1454:	482b      	ldr	r0, [pc, #172]	; (1504 <_sercom_get_default_pad+0x130>)
    1456:	e7cb      	b.n	13f0 <_sercom_get_default_pad+0x1c>
    1458:	482b      	ldr	r0, [pc, #172]	; (1508 <_sercom_get_default_pad+0x134>)
    145a:	e7c9      	b.n	13f0 <_sercom_get_default_pad+0x1c>
    145c:	482b      	ldr	r0, [pc, #172]	; (150c <_sercom_get_default_pad+0x138>)
    145e:	e7c7      	b.n	13f0 <_sercom_get_default_pad+0x1c>
    1460:	2901      	cmp	r1, #1
    1462:	d007      	beq.n	1474 <_sercom_get_default_pad+0xa0>
    1464:	2900      	cmp	r1, #0
    1466:	d031      	beq.n	14cc <_sercom_get_default_pad+0xf8>
    1468:	2902      	cmp	r1, #2
    146a:	d005      	beq.n	1478 <_sercom_get_default_pad+0xa4>
    146c:	2903      	cmp	r1, #3
    146e:	d005      	beq.n	147c <_sercom_get_default_pad+0xa8>
    1470:	2000      	movs	r0, #0
    1472:	e7bd      	b.n	13f0 <_sercom_get_default_pad+0x1c>
    1474:	4826      	ldr	r0, [pc, #152]	; (1510 <_sercom_get_default_pad+0x13c>)
    1476:	e7bb      	b.n	13f0 <_sercom_get_default_pad+0x1c>
    1478:	4826      	ldr	r0, [pc, #152]	; (1514 <_sercom_get_default_pad+0x140>)
    147a:	e7b9      	b.n	13f0 <_sercom_get_default_pad+0x1c>
    147c:	4826      	ldr	r0, [pc, #152]	; (1518 <_sercom_get_default_pad+0x144>)
    147e:	e7b7      	b.n	13f0 <_sercom_get_default_pad+0x1c>
    1480:	2901      	cmp	r1, #1
    1482:	d007      	beq.n	1494 <_sercom_get_default_pad+0xc0>
    1484:	2900      	cmp	r1, #0
    1486:	d023      	beq.n	14d0 <_sercom_get_default_pad+0xfc>
    1488:	2902      	cmp	r1, #2
    148a:	d005      	beq.n	1498 <_sercom_get_default_pad+0xc4>
    148c:	2903      	cmp	r1, #3
    148e:	d005      	beq.n	149c <_sercom_get_default_pad+0xc8>
    1490:	2000      	movs	r0, #0
    1492:	e7ad      	b.n	13f0 <_sercom_get_default_pad+0x1c>
    1494:	4821      	ldr	r0, [pc, #132]	; (151c <_sercom_get_default_pad+0x148>)
    1496:	e7ab      	b.n	13f0 <_sercom_get_default_pad+0x1c>
    1498:	4821      	ldr	r0, [pc, #132]	; (1520 <_sercom_get_default_pad+0x14c>)
    149a:	e7a9      	b.n	13f0 <_sercom_get_default_pad+0x1c>
    149c:	4821      	ldr	r0, [pc, #132]	; (1524 <_sercom_get_default_pad+0x150>)
    149e:	e7a7      	b.n	13f0 <_sercom_get_default_pad+0x1c>
    14a0:	2901      	cmp	r1, #1
    14a2:	d007      	beq.n	14b4 <_sercom_get_default_pad+0xe0>
    14a4:	2900      	cmp	r1, #0
    14a6:	d015      	beq.n	14d4 <_sercom_get_default_pad+0x100>
    14a8:	2902      	cmp	r1, #2
    14aa:	d005      	beq.n	14b8 <_sercom_get_default_pad+0xe4>
    14ac:	2903      	cmp	r1, #3
    14ae:	d005      	beq.n	14bc <_sercom_get_default_pad+0xe8>
    14b0:	2000      	movs	r0, #0
    14b2:	e79d      	b.n	13f0 <_sercom_get_default_pad+0x1c>
    14b4:	481c      	ldr	r0, [pc, #112]	; (1528 <_sercom_get_default_pad+0x154>)
    14b6:	e79b      	b.n	13f0 <_sercom_get_default_pad+0x1c>
    14b8:	481c      	ldr	r0, [pc, #112]	; (152c <_sercom_get_default_pad+0x158>)
    14ba:	e799      	b.n	13f0 <_sercom_get_default_pad+0x1c>
    14bc:	481c      	ldr	r0, [pc, #112]	; (1530 <_sercom_get_default_pad+0x15c>)
    14be:	e797      	b.n	13f0 <_sercom_get_default_pad+0x1c>
    14c0:	481c      	ldr	r0, [pc, #112]	; (1534 <_sercom_get_default_pad+0x160>)
    14c2:	e795      	b.n	13f0 <_sercom_get_default_pad+0x1c>
    14c4:	2003      	movs	r0, #3
    14c6:	e793      	b.n	13f0 <_sercom_get_default_pad+0x1c>
    14c8:	481b      	ldr	r0, [pc, #108]	; (1538 <_sercom_get_default_pad+0x164>)
    14ca:	e791      	b.n	13f0 <_sercom_get_default_pad+0x1c>
    14cc:	481b      	ldr	r0, [pc, #108]	; (153c <_sercom_get_default_pad+0x168>)
    14ce:	e78f      	b.n	13f0 <_sercom_get_default_pad+0x1c>
    14d0:	481b      	ldr	r0, [pc, #108]	; (1540 <_sercom_get_default_pad+0x16c>)
    14d2:	e78d      	b.n	13f0 <_sercom_get_default_pad+0x1c>
    14d4:	481b      	ldr	r0, [pc, #108]	; (1544 <_sercom_get_default_pad+0x170>)
    14d6:	e78b      	b.n	13f0 <_sercom_get_default_pad+0x1c>
    14d8:	42000800 	.word	0x42000800
    14dc:	42001000 	.word	0x42001000
    14e0:	43000400 	.word	0x43000400
    14e4:	42000c00 	.word	0x42000c00
    14e8:	42000400 	.word	0x42000400
    14ec:	00050003 	.word	0x00050003
    14f0:	00060003 	.word	0x00060003
    14f4:	00070003 	.word	0x00070003
    14f8:	00010003 	.word	0x00010003
    14fc:	001e0003 	.word	0x001e0003
    1500:	001f0003 	.word	0x001f0003
    1504:	00090003 	.word	0x00090003
    1508:	000a0003 	.word	0x000a0003
    150c:	000b0003 	.word	0x000b0003
    1510:	00110003 	.word	0x00110003
    1514:	00120003 	.word	0x00120003
    1518:	00130003 	.word	0x00130003
    151c:	000d0003 	.word	0x000d0003
    1520:	000e0003 	.word	0x000e0003
    1524:	000f0003 	.word	0x000f0003
    1528:	00170003 	.word	0x00170003
    152c:	00180003 	.word	0x00180003
    1530:	00190003 	.word	0x00190003
    1534:	00040003 	.word	0x00040003
    1538:	00080003 	.word	0x00080003
    153c:	00100003 	.word	0x00100003
    1540:	000c0003 	.word	0x000c0003
    1544:	00160003 	.word	0x00160003

00001548 <_sercom_get_sercom_inst_index>:
    1548:	b530      	push	{r4, r5, lr}
    154a:	b087      	sub	sp, #28
    154c:	4b0b      	ldr	r3, [pc, #44]	; (157c <_sercom_get_sercom_inst_index+0x34>)
    154e:	466a      	mov	r2, sp
    1550:	cb32      	ldmia	r3!, {r1, r4, r5}
    1552:	c232      	stmia	r2!, {r1, r4, r5}
    1554:	cb32      	ldmia	r3!, {r1, r4, r5}
    1556:	c232      	stmia	r2!, {r1, r4, r5}
    1558:	9b00      	ldr	r3, [sp, #0]
    155a:	4283      	cmp	r3, r0
    155c:	d00b      	beq.n	1576 <_sercom_get_sercom_inst_index+0x2e>
    155e:	2301      	movs	r3, #1
    1560:	009a      	lsls	r2, r3, #2
    1562:	4669      	mov	r1, sp
    1564:	5852      	ldr	r2, [r2, r1]
    1566:	4282      	cmp	r2, r0
    1568:	d006      	beq.n	1578 <_sercom_get_sercom_inst_index+0x30>
    156a:	3301      	adds	r3, #1
    156c:	2b06      	cmp	r3, #6
    156e:	d1f7      	bne.n	1560 <_sercom_get_sercom_inst_index+0x18>
    1570:	2000      	movs	r0, #0
    1572:	b007      	add	sp, #28
    1574:	bd30      	pop	{r4, r5, pc}
    1576:	2300      	movs	r3, #0
    1578:	b2d8      	uxtb	r0, r3
    157a:	e7fa      	b.n	1572 <_sercom_get_sercom_inst_index+0x2a>
    157c:	0000403c 	.word	0x0000403c

00001580 <_sercom_default_handler>:
    1580:	4770      	bx	lr
	...

00001584 <_sercom_set_handler>:
    1584:	b5f0      	push	{r4, r5, r6, r7, lr}
    1586:	4b0a      	ldr	r3, [pc, #40]	; (15b0 <_sercom_set_handler+0x2c>)
    1588:	781b      	ldrb	r3, [r3, #0]
    158a:	2b00      	cmp	r3, #0
    158c:	d10c      	bne.n	15a8 <_sercom_set_handler+0x24>
    158e:	4f09      	ldr	r7, [pc, #36]	; (15b4 <_sercom_set_handler+0x30>)
    1590:	4e09      	ldr	r6, [pc, #36]	; (15b8 <_sercom_set_handler+0x34>)
    1592:	4d0a      	ldr	r5, [pc, #40]	; (15bc <_sercom_set_handler+0x38>)
    1594:	2400      	movs	r4, #0
    1596:	51de      	str	r6, [r3, r7]
    1598:	195a      	adds	r2, r3, r5
    159a:	6014      	str	r4, [r2, #0]
    159c:	3304      	adds	r3, #4
    159e:	2b18      	cmp	r3, #24
    15a0:	d1f9      	bne.n	1596 <_sercom_set_handler+0x12>
    15a2:	2201      	movs	r2, #1
    15a4:	4b02      	ldr	r3, [pc, #8]	; (15b0 <_sercom_set_handler+0x2c>)
    15a6:	701a      	strb	r2, [r3, #0]
    15a8:	0080      	lsls	r0, r0, #2
    15aa:	4b02      	ldr	r3, [pc, #8]	; (15b4 <_sercom_set_handler+0x30>)
    15ac:	50c1      	str	r1, [r0, r3]
    15ae:	bdf0      	pop	{r4, r5, r6, r7, pc}
    15b0:	200000a6 	.word	0x200000a6
    15b4:	200000a8 	.word	0x200000a8
    15b8:	00001581 	.word	0x00001581
    15bc:	200005ec 	.word	0x200005ec

000015c0 <_sercom_get_interrupt_vector>:
    15c0:	b500      	push	{lr}
    15c2:	b083      	sub	sp, #12
    15c4:	2308      	movs	r3, #8
    15c6:	466a      	mov	r2, sp
    15c8:	7013      	strb	r3, [r2, #0]
    15ca:	3301      	adds	r3, #1
    15cc:	7053      	strb	r3, [r2, #1]
    15ce:	3301      	adds	r3, #1
    15d0:	7093      	strb	r3, [r2, #2]
    15d2:	3301      	adds	r3, #1
    15d4:	70d3      	strb	r3, [r2, #3]
    15d6:	3301      	adds	r3, #1
    15d8:	7113      	strb	r3, [r2, #4]
    15da:	3301      	adds	r3, #1
    15dc:	7153      	strb	r3, [r2, #5]
    15de:	4b03      	ldr	r3, [pc, #12]	; (15ec <_sercom_get_interrupt_vector+0x2c>)
    15e0:	4798      	blx	r3
    15e2:	466b      	mov	r3, sp
    15e4:	5618      	ldrsb	r0, [r3, r0]
    15e6:	b003      	add	sp, #12
    15e8:	bd00      	pop	{pc}
    15ea:	46c0      	nop			; (mov r8, r8)
    15ec:	00001549 	.word	0x00001549

000015f0 <SERCOM0_Handler>:
    15f0:	b510      	push	{r4, lr}
    15f2:	4b02      	ldr	r3, [pc, #8]	; (15fc <SERCOM0_Handler+0xc>)
    15f4:	681b      	ldr	r3, [r3, #0]
    15f6:	2000      	movs	r0, #0
    15f8:	4798      	blx	r3
    15fa:	bd10      	pop	{r4, pc}
    15fc:	200000a8 	.word	0x200000a8

00001600 <SERCOM1_Handler>:
    1600:	b510      	push	{r4, lr}
    1602:	4b02      	ldr	r3, [pc, #8]	; (160c <SERCOM1_Handler+0xc>)
    1604:	685b      	ldr	r3, [r3, #4]
    1606:	2001      	movs	r0, #1
    1608:	4798      	blx	r3
    160a:	bd10      	pop	{r4, pc}
    160c:	200000a8 	.word	0x200000a8

00001610 <SERCOM2_Handler>:
    1610:	b510      	push	{r4, lr}
    1612:	4b02      	ldr	r3, [pc, #8]	; (161c <SERCOM2_Handler+0xc>)
    1614:	689b      	ldr	r3, [r3, #8]
    1616:	2002      	movs	r0, #2
    1618:	4798      	blx	r3
    161a:	bd10      	pop	{r4, pc}
    161c:	200000a8 	.word	0x200000a8

00001620 <SERCOM3_Handler>:
    1620:	b510      	push	{r4, lr}
    1622:	4b02      	ldr	r3, [pc, #8]	; (162c <SERCOM3_Handler+0xc>)
    1624:	68db      	ldr	r3, [r3, #12]
    1626:	2003      	movs	r0, #3
    1628:	4798      	blx	r3
    162a:	bd10      	pop	{r4, pc}
    162c:	200000a8 	.word	0x200000a8

00001630 <SERCOM4_Handler>:
    1630:	b510      	push	{r4, lr}
    1632:	4b02      	ldr	r3, [pc, #8]	; (163c <SERCOM4_Handler+0xc>)
    1634:	691b      	ldr	r3, [r3, #16]
    1636:	2004      	movs	r0, #4
    1638:	4798      	blx	r3
    163a:	bd10      	pop	{r4, pc}
    163c:	200000a8 	.word	0x200000a8

00001640 <SERCOM5_Handler>:
    1640:	b510      	push	{r4, lr}
    1642:	4b02      	ldr	r3, [pc, #8]	; (164c <SERCOM5_Handler+0xc>)
    1644:	695b      	ldr	r3, [r3, #20]
    1646:	2005      	movs	r0, #5
    1648:	4798      	blx	r3
    164a:	bd10      	pop	{r4, pc}
    164c:	200000a8 	.word	0x200000a8

00001650 <spi_init>:
    1650:	b5f0      	push	{r4, r5, r6, r7, lr}
    1652:	b08b      	sub	sp, #44	; 0x2c
    1654:	0005      	movs	r5, r0
    1656:	000c      	movs	r4, r1
    1658:	0016      	movs	r6, r2
    165a:	6029      	str	r1, [r5, #0]
    165c:	680b      	ldr	r3, [r1, #0]
    165e:	201c      	movs	r0, #28
    1660:	079b      	lsls	r3, r3, #30
    1662:	d501      	bpl.n	1668 <spi_init+0x18>
    1664:	b00b      	add	sp, #44	; 0x2c
    1666:	bdf0      	pop	{r4, r5, r6, r7, pc}
    1668:	680b      	ldr	r3, [r1, #0]
    166a:	3817      	subs	r0, #23
    166c:	07db      	lsls	r3, r3, #31
    166e:	d4f9      	bmi.n	1664 <spi_init+0x14>
    1670:	0008      	movs	r0, r1
    1672:	4b65      	ldr	r3, [pc, #404]	; (1808 <spi_init+0x1b8>)
    1674:	4798      	blx	r3
    1676:	2805      	cmp	r0, #5
    1678:	d100      	bne.n	167c <spi_init+0x2c>
    167a:	e0be      	b.n	17fa <spi_init+0x1aa>
    167c:	0003      	movs	r3, r0
    167e:	3312      	adds	r3, #18
    1680:	4962      	ldr	r1, [pc, #392]	; (180c <spi_init+0x1bc>)
    1682:	69cf      	ldr	r7, [r1, #28]
    1684:	2201      	movs	r2, #1
    1686:	4082      	lsls	r2, r0
    1688:	433a      	orrs	r2, r7
    168a:	61ca      	str	r2, [r1, #28]
    168c:	a909      	add	r1, sp, #36	; 0x24
    168e:	2724      	movs	r7, #36	; 0x24
    1690:	5df2      	ldrb	r2, [r6, r7]
    1692:	700a      	strb	r2, [r1, #0]
    1694:	b2db      	uxtb	r3, r3
    1696:	9301      	str	r3, [sp, #4]
    1698:	0018      	movs	r0, r3
    169a:	4b5d      	ldr	r3, [pc, #372]	; (1810 <spi_init+0x1c0>)
    169c:	4798      	blx	r3
    169e:	9801      	ldr	r0, [sp, #4]
    16a0:	4b5c      	ldr	r3, [pc, #368]	; (1814 <spi_init+0x1c4>)
    16a2:	4798      	blx	r3
    16a4:	5df0      	ldrb	r0, [r6, r7]
    16a6:	2100      	movs	r1, #0
    16a8:	4b5b      	ldr	r3, [pc, #364]	; (1818 <spi_init+0x1c8>)
    16aa:	4798      	blx	r3
    16ac:	7833      	ldrb	r3, [r6, #0]
    16ae:	2b01      	cmp	r3, #1
    16b0:	d038      	beq.n	1724 <spi_init+0xd4>
    16b2:	002b      	movs	r3, r5
    16b4:	330c      	adds	r3, #12
    16b6:	0029      	movs	r1, r5
    16b8:	3128      	adds	r1, #40	; 0x28
    16ba:	2200      	movs	r2, #0
    16bc:	c304      	stmia	r3!, {r2}
    16be:	4299      	cmp	r1, r3
    16c0:	d1fc      	bne.n	16bc <spi_init+0x6c>
    16c2:	2300      	movs	r3, #0
    16c4:	62eb      	str	r3, [r5, #44]	; 0x2c
    16c6:	62ab      	str	r3, [r5, #40]	; 0x28
    16c8:	2400      	movs	r4, #0
    16ca:	86ab      	strh	r3, [r5, #52]	; 0x34
    16cc:	862b      	strh	r3, [r5, #48]	; 0x30
    16ce:	3336      	adds	r3, #54	; 0x36
    16d0:	54ec      	strb	r4, [r5, r3]
    16d2:	3301      	adds	r3, #1
    16d4:	54ec      	strb	r4, [r5, r3]
    16d6:	3301      	adds	r3, #1
    16d8:	54ec      	strb	r4, [r5, r3]
    16da:	3b35      	subs	r3, #53	; 0x35
    16dc:	726b      	strb	r3, [r5, #9]
    16de:	712c      	strb	r4, [r5, #4]
    16e0:	6828      	ldr	r0, [r5, #0]
    16e2:	4b49      	ldr	r3, [pc, #292]	; (1808 <spi_init+0x1b8>)
    16e4:	4798      	blx	r3
    16e6:	0007      	movs	r7, r0
    16e8:	494c      	ldr	r1, [pc, #304]	; (181c <spi_init+0x1cc>)
    16ea:	4b4d      	ldr	r3, [pc, #308]	; (1820 <spi_init+0x1d0>)
    16ec:	4798      	blx	r3
    16ee:	00bf      	lsls	r7, r7, #2
    16f0:	4b4c      	ldr	r3, [pc, #304]	; (1824 <spi_init+0x1d4>)
    16f2:	50fd      	str	r5, [r7, r3]
    16f4:	682f      	ldr	r7, [r5, #0]
    16f6:	ab04      	add	r3, sp, #16
    16f8:	2280      	movs	r2, #128	; 0x80
    16fa:	701a      	strb	r2, [r3, #0]
    16fc:	705c      	strb	r4, [r3, #1]
    16fe:	3a7f      	subs	r2, #127	; 0x7f
    1700:	709a      	strb	r2, [r3, #2]
    1702:	70dc      	strb	r4, [r3, #3]
    1704:	7833      	ldrb	r3, [r6, #0]
    1706:	2b00      	cmp	r3, #0
    1708:	d102      	bne.n	1710 <spi_init+0xc0>
    170a:	2200      	movs	r2, #0
    170c:	ab04      	add	r3, sp, #16
    170e:	709a      	strb	r2, [r3, #2]
    1710:	6ab3      	ldr	r3, [r6, #40]	; 0x28
    1712:	9305      	str	r3, [sp, #20]
    1714:	6af3      	ldr	r3, [r6, #44]	; 0x2c
    1716:	9306      	str	r3, [sp, #24]
    1718:	6b33      	ldr	r3, [r6, #48]	; 0x30
    171a:	9307      	str	r3, [sp, #28]
    171c:	6b73      	ldr	r3, [r6, #52]	; 0x34
    171e:	9308      	str	r3, [sp, #32]
    1720:	2400      	movs	r4, #0
    1722:	e00b      	b.n	173c <spi_init+0xec>
    1724:	6823      	ldr	r3, [r4, #0]
    1726:	220c      	movs	r2, #12
    1728:	4313      	orrs	r3, r2
    172a:	6023      	str	r3, [r4, #0]
    172c:	e7c1      	b.n	16b2 <spi_init+0x62>
    172e:	0038      	movs	r0, r7
    1730:	4b3d      	ldr	r3, [pc, #244]	; (1828 <spi_init+0x1d8>)
    1732:	4798      	blx	r3
    1734:	e00a      	b.n	174c <spi_init+0xfc>
    1736:	3401      	adds	r4, #1
    1738:	2c04      	cmp	r4, #4
    173a:	d010      	beq.n	175e <spi_init+0x10e>
    173c:	b2e1      	uxtb	r1, r4
    173e:	00a3      	lsls	r3, r4, #2
    1740:	aa02      	add	r2, sp, #8
    1742:	200c      	movs	r0, #12
    1744:	1812      	adds	r2, r2, r0
    1746:	58d0      	ldr	r0, [r2, r3]
    1748:	2800      	cmp	r0, #0
    174a:	d0f0      	beq.n	172e <spi_init+0xde>
    174c:	1c43      	adds	r3, r0, #1
    174e:	d0f2      	beq.n	1736 <spi_init+0xe6>
    1750:	a904      	add	r1, sp, #16
    1752:	7008      	strb	r0, [r1, #0]
    1754:	0c00      	lsrs	r0, r0, #16
    1756:	b2c0      	uxtb	r0, r0
    1758:	4b34      	ldr	r3, [pc, #208]	; (182c <spi_init+0x1dc>)
    175a:	4798      	blx	r3
    175c:	e7eb      	b.n	1736 <spi_init+0xe6>
    175e:	7833      	ldrb	r3, [r6, #0]
    1760:	716b      	strb	r3, [r5, #5]
    1762:	7c33      	ldrb	r3, [r6, #16]
    1764:	71ab      	strb	r3, [r5, #6]
    1766:	7cb3      	ldrb	r3, [r6, #18]
    1768:	71eb      	strb	r3, [r5, #7]
    176a:	7d33      	ldrb	r3, [r6, #20]
    176c:	722b      	strb	r3, [r5, #8]
    176e:	2200      	movs	r2, #0
    1770:	ab02      	add	r3, sp, #8
    1772:	80da      	strh	r2, [r3, #6]
    1774:	7833      	ldrb	r3, [r6, #0]
    1776:	2b01      	cmp	r3, #1
    1778:	d028      	beq.n	17cc <spi_init+0x17c>
    177a:	6873      	ldr	r3, [r6, #4]
    177c:	68b2      	ldr	r2, [r6, #8]
    177e:	4313      	orrs	r3, r2
    1780:	68f2      	ldr	r2, [r6, #12]
    1782:	4313      	orrs	r3, r2
    1784:	7c31      	ldrb	r1, [r6, #16]
    1786:	7c72      	ldrb	r2, [r6, #17]
    1788:	2a00      	cmp	r2, #0
    178a:	d103      	bne.n	1794 <spi_init+0x144>
    178c:	4a28      	ldr	r2, [pc, #160]	; (1830 <spi_init+0x1e0>)
    178e:	7892      	ldrb	r2, [r2, #2]
    1790:	0792      	lsls	r2, r2, #30
    1792:	d501      	bpl.n	1798 <spi_init+0x148>
    1794:	2280      	movs	r2, #128	; 0x80
    1796:	4313      	orrs	r3, r2
    1798:	7cb2      	ldrb	r2, [r6, #18]
    179a:	2a00      	cmp	r2, #0
    179c:	d002      	beq.n	17a4 <spi_init+0x154>
    179e:	2280      	movs	r2, #128	; 0x80
    17a0:	0292      	lsls	r2, r2, #10
    17a2:	4311      	orrs	r1, r2
    17a4:	7cf2      	ldrb	r2, [r6, #19]
    17a6:	2a00      	cmp	r2, #0
    17a8:	d002      	beq.n	17b0 <spi_init+0x160>
    17aa:	2280      	movs	r2, #128	; 0x80
    17ac:	0092      	lsls	r2, r2, #2
    17ae:	4311      	orrs	r1, r2
    17b0:	7d32      	ldrb	r2, [r6, #20]
    17b2:	2a00      	cmp	r2, #0
    17b4:	d002      	beq.n	17bc <spi_init+0x16c>
    17b6:	2280      	movs	r2, #128	; 0x80
    17b8:	0192      	lsls	r2, r2, #6
    17ba:	4311      	orrs	r1, r2
    17bc:	683a      	ldr	r2, [r7, #0]
    17be:	4313      	orrs	r3, r2
    17c0:	603b      	str	r3, [r7, #0]
    17c2:	687b      	ldr	r3, [r7, #4]
    17c4:	430b      	orrs	r3, r1
    17c6:	607b      	str	r3, [r7, #4]
    17c8:	2000      	movs	r0, #0
    17ca:	e74b      	b.n	1664 <spi_init+0x14>
    17cc:	6828      	ldr	r0, [r5, #0]
    17ce:	4b0e      	ldr	r3, [pc, #56]	; (1808 <spi_init+0x1b8>)
    17d0:	4798      	blx	r3
    17d2:	3012      	adds	r0, #18
    17d4:	b2c0      	uxtb	r0, r0
    17d6:	4b17      	ldr	r3, [pc, #92]	; (1834 <spi_init+0x1e4>)
    17d8:	4798      	blx	r3
    17da:	0001      	movs	r1, r0
    17dc:	ab02      	add	r3, sp, #8
    17de:	1d9a      	adds	r2, r3, #6
    17e0:	69b0      	ldr	r0, [r6, #24]
    17e2:	4b15      	ldr	r3, [pc, #84]	; (1838 <spi_init+0x1e8>)
    17e4:	4798      	blx	r3
    17e6:	0003      	movs	r3, r0
    17e8:	2017      	movs	r0, #23
    17ea:	2b00      	cmp	r3, #0
    17ec:	d000      	beq.n	17f0 <spi_init+0x1a0>
    17ee:	e739      	b.n	1664 <spi_init+0x14>
    17f0:	ab02      	add	r3, sp, #8
    17f2:	3306      	adds	r3, #6
    17f4:	781b      	ldrb	r3, [r3, #0]
    17f6:	733b      	strb	r3, [r7, #12]
    17f8:	e7bf      	b.n	177a <spi_init+0x12a>
    17fa:	4a04      	ldr	r2, [pc, #16]	; (180c <spi_init+0x1bc>)
    17fc:	6a13      	ldr	r3, [r2, #32]
    17fe:	2102      	movs	r1, #2
    1800:	430b      	orrs	r3, r1
    1802:	6213      	str	r3, [r2, #32]
    1804:	2318      	movs	r3, #24
    1806:	e741      	b.n	168c <spi_init+0x3c>
    1808:	00001549 	.word	0x00001549
    180c:	40000400 	.word	0x40000400
    1810:	000028d1 	.word	0x000028d1
    1814:	00002861 	.word	0x00002861
    1818:	00001389 	.word	0x00001389
    181c:	00001931 	.word	0x00001931
    1820:	00001585 	.word	0x00001585
    1824:	200005ec 	.word	0x200005ec
    1828:	000013d5 	.word	0x000013d5
    182c:	000029cd 	.word	0x000029cd
    1830:	41002000 	.word	0x41002000
    1834:	000028f5 	.word	0x000028f5
    1838:	000012cb 	.word	0x000012cb

0000183c <spi_select_slave>:
    183c:	b510      	push	{r4, lr}
    183e:	7944      	ldrb	r4, [r0, #5]
    1840:	2315      	movs	r3, #21
    1842:	2c01      	cmp	r4, #1
    1844:	d001      	beq.n	184a <spi_select_slave+0xe>
    1846:	0018      	movs	r0, r3
    1848:	bd10      	pop	{r4, pc}
    184a:	7a04      	ldrb	r4, [r0, #8]
    184c:	2300      	movs	r3, #0
    184e:	2c00      	cmp	r4, #0
    1850:	d1f9      	bne.n	1846 <spi_select_slave+0xa>
    1852:	2a00      	cmp	r2, #0
    1854:	d058      	beq.n	1908 <spi_select_slave+0xcc>
    1856:	784b      	ldrb	r3, [r1, #1]
    1858:	2b00      	cmp	r3, #0
    185a:	d044      	beq.n	18e6 <spi_select_slave+0xaa>
    185c:	6803      	ldr	r3, [r0, #0]
    185e:	7e1b      	ldrb	r3, [r3, #24]
    1860:	07db      	lsls	r3, r3, #31
    1862:	d410      	bmi.n	1886 <spi_select_slave+0x4a>
    1864:	780a      	ldrb	r2, [r1, #0]
    1866:	09d1      	lsrs	r1, r2, #7
    1868:	2300      	movs	r3, #0
    186a:	2900      	cmp	r1, #0
    186c:	d104      	bne.n	1878 <spi_select_slave+0x3c>
    186e:	0953      	lsrs	r3, r2, #5
    1870:	01db      	lsls	r3, r3, #7
    1872:	492e      	ldr	r1, [pc, #184]	; (192c <spi_select_slave+0xf0>)
    1874:	468c      	mov	ip, r1
    1876:	4463      	add	r3, ip
    1878:	211f      	movs	r1, #31
    187a:	4011      	ands	r1, r2
    187c:	2201      	movs	r2, #1
    187e:	408a      	lsls	r2, r1
    1880:	619a      	str	r2, [r3, #24]
    1882:	2305      	movs	r3, #5
    1884:	e7df      	b.n	1846 <spi_select_slave+0xa>
    1886:	780a      	ldrb	r2, [r1, #0]
    1888:	09d4      	lsrs	r4, r2, #7
    188a:	2300      	movs	r3, #0
    188c:	2c00      	cmp	r4, #0
    188e:	d104      	bne.n	189a <spi_select_slave+0x5e>
    1890:	0953      	lsrs	r3, r2, #5
    1892:	01db      	lsls	r3, r3, #7
    1894:	4c25      	ldr	r4, [pc, #148]	; (192c <spi_select_slave+0xf0>)
    1896:	46a4      	mov	ip, r4
    1898:	4463      	add	r3, ip
    189a:	241f      	movs	r4, #31
    189c:	4014      	ands	r4, r2
    189e:	2201      	movs	r2, #1
    18a0:	40a2      	lsls	r2, r4
    18a2:	615a      	str	r2, [r3, #20]
    18a4:	6803      	ldr	r3, [r0, #0]
    18a6:	7e1a      	ldrb	r2, [r3, #24]
    18a8:	07d2      	lsls	r2, r2, #31
    18aa:	d501      	bpl.n	18b0 <spi_select_slave+0x74>
    18ac:	788a      	ldrb	r2, [r1, #2]
    18ae:	629a      	str	r2, [r3, #40]	; 0x28
    18b0:	79c2      	ldrb	r2, [r0, #7]
    18b2:	2300      	movs	r3, #0
    18b4:	2a00      	cmp	r2, #0
    18b6:	d1c6      	bne.n	1846 <spi_select_slave+0xa>
    18b8:	6802      	ldr	r2, [r0, #0]
    18ba:	2104      	movs	r1, #4
    18bc:	7e13      	ldrb	r3, [r2, #24]
    18be:	420b      	tst	r3, r1
    18c0:	d0fc      	beq.n	18bc <spi_select_slave+0x80>
    18c2:	7e11      	ldrb	r1, [r2, #24]
    18c4:	2300      	movs	r3, #0
    18c6:	0749      	lsls	r1, r1, #29
    18c8:	d5bd      	bpl.n	1846 <spi_select_slave+0xa>
    18ca:	8b53      	ldrh	r3, [r2, #26]
    18cc:	075b      	lsls	r3, r3, #29
    18ce:	d501      	bpl.n	18d4 <spi_select_slave+0x98>
    18d0:	2304      	movs	r3, #4
    18d2:	8353      	strh	r3, [r2, #26]
    18d4:	7983      	ldrb	r3, [r0, #6]
    18d6:	2b01      	cmp	r3, #1
    18d8:	d002      	beq.n	18e0 <spi_select_slave+0xa4>
    18da:	6a93      	ldr	r3, [r2, #40]	; 0x28
    18dc:	2300      	movs	r3, #0
    18de:	e7b2      	b.n	1846 <spi_select_slave+0xa>
    18e0:	6a93      	ldr	r3, [r2, #40]	; 0x28
    18e2:	2300      	movs	r3, #0
    18e4:	e7af      	b.n	1846 <spi_select_slave+0xa>
    18e6:	780a      	ldrb	r2, [r1, #0]
    18e8:	09d1      	lsrs	r1, r2, #7
    18ea:	2300      	movs	r3, #0
    18ec:	2900      	cmp	r1, #0
    18ee:	d104      	bne.n	18fa <spi_select_slave+0xbe>
    18f0:	0953      	lsrs	r3, r2, #5
    18f2:	01db      	lsls	r3, r3, #7
    18f4:	490d      	ldr	r1, [pc, #52]	; (192c <spi_select_slave+0xf0>)
    18f6:	468c      	mov	ip, r1
    18f8:	4463      	add	r3, ip
    18fa:	211f      	movs	r1, #31
    18fc:	4011      	ands	r1, r2
    18fe:	2201      	movs	r2, #1
    1900:	408a      	lsls	r2, r1
    1902:	615a      	str	r2, [r3, #20]
    1904:	2300      	movs	r3, #0
    1906:	e79e      	b.n	1846 <spi_select_slave+0xa>
    1908:	780a      	ldrb	r2, [r1, #0]
    190a:	09d1      	lsrs	r1, r2, #7
    190c:	2300      	movs	r3, #0
    190e:	2900      	cmp	r1, #0
    1910:	d104      	bne.n	191c <spi_select_slave+0xe0>
    1912:	0953      	lsrs	r3, r2, #5
    1914:	01db      	lsls	r3, r3, #7
    1916:	4905      	ldr	r1, [pc, #20]	; (192c <spi_select_slave+0xf0>)
    1918:	468c      	mov	ip, r1
    191a:	4463      	add	r3, ip
    191c:	211f      	movs	r1, #31
    191e:	4011      	ands	r1, r2
    1920:	2201      	movs	r2, #1
    1922:	408a      	lsls	r2, r1
    1924:	619a      	str	r2, [r3, #24]
    1926:	2300      	movs	r3, #0
    1928:	e78d      	b.n	1846 <spi_select_slave+0xa>
    192a:	46c0      	nop			; (mov r8, r8)
    192c:	40002800 	.word	0x40002800

00001930 <_spi_interrupt_handler>:
    1930:	b5f8      	push	{r3, r4, r5, r6, r7, lr}
    1932:	0080      	lsls	r0, r0, #2
    1934:	4b70      	ldr	r3, [pc, #448]	; (1af8 <_spi_interrupt_handler+0x1c8>)
    1936:	58c4      	ldr	r4, [r0, r3]
    1938:	6826      	ldr	r6, [r4, #0]
    193a:	2337      	movs	r3, #55	; 0x37
    193c:	5ce7      	ldrb	r7, [r4, r3]
    193e:	2236      	movs	r2, #54	; 0x36
    1940:	5ca2      	ldrb	r2, [r4, r2]
    1942:	4017      	ands	r7, r2
    1944:	7e33      	ldrb	r3, [r6, #24]
    1946:	7db5      	ldrb	r5, [r6, #22]
    1948:	401d      	ands	r5, r3
    194a:	07eb      	lsls	r3, r5, #31
    194c:	d502      	bpl.n	1954 <_spi_interrupt_handler+0x24>
    194e:	7963      	ldrb	r3, [r4, #5]
    1950:	2b01      	cmp	r3, #1
    1952:	d01e      	beq.n	1992 <_spi_interrupt_handler+0x62>
    1954:	076b      	lsls	r3, r5, #29
    1956:	d511      	bpl.n	197c <_spi_interrupt_handler+0x4c>
    1958:	8b73      	ldrh	r3, [r6, #26]
    195a:	075b      	lsls	r3, r3, #29
    195c:	d55a      	bpl.n	1a14 <_spi_interrupt_handler+0xe4>
    195e:	7a63      	ldrb	r3, [r4, #9]
    1960:	2b01      	cmp	r3, #1
    1962:	d008      	beq.n	1976 <_spi_interrupt_handler+0x46>
    1964:	221e      	movs	r2, #30
    1966:	2338      	movs	r3, #56	; 0x38
    1968:	54e2      	strb	r2, [r4, r3]
    196a:	3b35      	subs	r3, #53	; 0x35
    196c:	7263      	strb	r3, [r4, #9]
    196e:	3302      	adds	r3, #2
    1970:	7533      	strb	r3, [r6, #20]
    1972:	073b      	lsls	r3, r7, #28
    1974:	d44a      	bmi.n	1a0c <_spi_interrupt_handler+0xdc>
    1976:	6ab3      	ldr	r3, [r6, #40]	; 0x28
    1978:	2304      	movs	r3, #4
    197a:	8373      	strh	r3, [r6, #26]
    197c:	07ab      	lsls	r3, r5, #30
    197e:	d503      	bpl.n	1988 <_spi_interrupt_handler+0x58>
    1980:	7963      	ldrb	r3, [r4, #5]
    1982:	2b01      	cmp	r3, #1
    1984:	d100      	bne.n	1988 <_spi_interrupt_handler+0x58>
    1986:	e097      	b.n	1ab8 <_spi_interrupt_handler+0x188>
    1988:	b26d      	sxtb	r5, r5
    198a:	2d00      	cmp	r5, #0
    198c:	da00      	bge.n	1990 <_spi_interrupt_handler+0x60>
    198e:	e0a9      	b.n	1ae4 <_spi_interrupt_handler+0x1b4>
    1990:	bdf8      	pop	{r3, r4, r5, r6, r7, pc}
    1992:	7a63      	ldrb	r3, [r4, #9]
    1994:	2b00      	cmp	r3, #0
    1996:	d022      	beq.n	19de <_spi_interrupt_handler+0xae>
    1998:	7a63      	ldrb	r3, [r4, #9]
    199a:	2b00      	cmp	r3, #0
    199c:	d0da      	beq.n	1954 <_spi_interrupt_handler+0x24>
    199e:	6821      	ldr	r1, [r4, #0]
    19a0:	6ae2      	ldr	r2, [r4, #44]	; 0x2c
    19a2:	7813      	ldrb	r3, [r2, #0]
    19a4:	b2db      	uxtb	r3, r3
    19a6:	1c50      	adds	r0, r2, #1
    19a8:	62e0      	str	r0, [r4, #44]	; 0x2c
    19aa:	79a0      	ldrb	r0, [r4, #6]
    19ac:	2801      	cmp	r0, #1
    19ae:	d027      	beq.n	1a00 <_spi_interrupt_handler+0xd0>
    19b0:	b29b      	uxth	r3, r3
    19b2:	05db      	lsls	r3, r3, #23
    19b4:	0ddb      	lsrs	r3, r3, #23
    19b6:	628b      	str	r3, [r1, #40]	; 0x28
    19b8:	8ea3      	ldrh	r3, [r4, #52]	; 0x34
    19ba:	3b01      	subs	r3, #1
    19bc:	b29b      	uxth	r3, r3
    19be:	86a3      	strh	r3, [r4, #52]	; 0x34
    19c0:	8ea3      	ldrh	r3, [r4, #52]	; 0x34
    19c2:	b29b      	uxth	r3, r3
    19c4:	2b00      	cmp	r3, #0
    19c6:	d1c5      	bne.n	1954 <_spi_interrupt_handler+0x24>
    19c8:	3301      	adds	r3, #1
    19ca:	7533      	strb	r3, [r6, #20]
    19cc:	7a63      	ldrb	r3, [r4, #9]
    19ce:	2b01      	cmp	r3, #1
    19d0:	d1c0      	bne.n	1954 <_spi_interrupt_handler+0x24>
    19d2:	79e3      	ldrb	r3, [r4, #7]
    19d4:	2b00      	cmp	r3, #0
    19d6:	d1bd      	bne.n	1954 <_spi_interrupt_handler+0x24>
    19d8:	3302      	adds	r3, #2
    19da:	75b3      	strb	r3, [r6, #22]
    19dc:	e7ba      	b.n	1954 <_spi_interrupt_handler+0x24>
    19de:	4b47      	ldr	r3, [pc, #284]	; (1afc <_spi_interrupt_handler+0x1cc>)
    19e0:	881b      	ldrh	r3, [r3, #0]
    19e2:	62b3      	str	r3, [r6, #40]	; 0x28
    19e4:	8e63      	ldrh	r3, [r4, #50]	; 0x32
    19e6:	3b01      	subs	r3, #1
    19e8:	b29b      	uxth	r3, r3
    19ea:	8663      	strh	r3, [r4, #50]	; 0x32
    19ec:	8e63      	ldrh	r3, [r4, #50]	; 0x32
    19ee:	b29b      	uxth	r3, r3
    19f0:	2b00      	cmp	r3, #0
    19f2:	d101      	bne.n	19f8 <_spi_interrupt_handler+0xc8>
    19f4:	3301      	adds	r3, #1
    19f6:	7533      	strb	r3, [r6, #20]
    19f8:	7963      	ldrb	r3, [r4, #5]
    19fa:	2b01      	cmp	r3, #1
    19fc:	d0cc      	beq.n	1998 <_spi_interrupt_handler+0x68>
    19fe:	e7a9      	b.n	1954 <_spi_interrupt_handler+0x24>
    1a00:	7850      	ldrb	r0, [r2, #1]
    1a02:	0200      	lsls	r0, r0, #8
    1a04:	4303      	orrs	r3, r0
    1a06:	3202      	adds	r2, #2
    1a08:	62e2      	str	r2, [r4, #44]	; 0x2c
    1a0a:	e7d2      	b.n	19b2 <_spi_interrupt_handler+0x82>
    1a0c:	0020      	movs	r0, r4
    1a0e:	69a3      	ldr	r3, [r4, #24]
    1a10:	4798      	blx	r3
    1a12:	e7b0      	b.n	1976 <_spi_interrupt_handler+0x46>
    1a14:	7a63      	ldrb	r3, [r4, #9]
    1a16:	2b01      	cmp	r3, #1
    1a18:	d028      	beq.n	1a6c <_spi_interrupt_handler+0x13c>
    1a1a:	6823      	ldr	r3, [r4, #0]
    1a1c:	6a9b      	ldr	r3, [r3, #40]	; 0x28
    1a1e:	05db      	lsls	r3, r3, #23
    1a20:	0ddb      	lsrs	r3, r3, #23
    1a22:	b2da      	uxtb	r2, r3
    1a24:	6aa1      	ldr	r1, [r4, #40]	; 0x28
    1a26:	700a      	strb	r2, [r1, #0]
    1a28:	6aa2      	ldr	r2, [r4, #40]	; 0x28
    1a2a:	1c51      	adds	r1, r2, #1
    1a2c:	62a1      	str	r1, [r4, #40]	; 0x28
    1a2e:	79a1      	ldrb	r1, [r4, #6]
    1a30:	2901      	cmp	r1, #1
    1a32:	d034      	beq.n	1a9e <_spi_interrupt_handler+0x16e>
    1a34:	8e23      	ldrh	r3, [r4, #48]	; 0x30
    1a36:	3b01      	subs	r3, #1
    1a38:	b29b      	uxth	r3, r3
    1a3a:	8623      	strh	r3, [r4, #48]	; 0x30
    1a3c:	8e23      	ldrh	r3, [r4, #48]	; 0x30
    1a3e:	b29b      	uxth	r3, r3
    1a40:	2b00      	cmp	r3, #0
    1a42:	d000      	beq.n	1a46 <_spi_interrupt_handler+0x116>
    1a44:	e79a      	b.n	197c <_spi_interrupt_handler+0x4c>
    1a46:	2200      	movs	r2, #0
    1a48:	3338      	adds	r3, #56	; 0x38
    1a4a:	54e2      	strb	r2, [r4, r3]
    1a4c:	3b34      	subs	r3, #52	; 0x34
    1a4e:	7533      	strb	r3, [r6, #20]
    1a50:	7a63      	ldrb	r3, [r4, #9]
    1a52:	2b02      	cmp	r3, #2
    1a54:	d029      	beq.n	1aaa <_spi_interrupt_handler+0x17a>
    1a56:	7a63      	ldrb	r3, [r4, #9]
    1a58:	2b00      	cmp	r3, #0
    1a5a:	d000      	beq.n	1a5e <_spi_interrupt_handler+0x12e>
    1a5c:	e78e      	b.n	197c <_spi_interrupt_handler+0x4c>
    1a5e:	07bb      	lsls	r3, r7, #30
    1a60:	d400      	bmi.n	1a64 <_spi_interrupt_handler+0x134>
    1a62:	e78b      	b.n	197c <_spi_interrupt_handler+0x4c>
    1a64:	0020      	movs	r0, r4
    1a66:	6923      	ldr	r3, [r4, #16]
    1a68:	4798      	blx	r3
    1a6a:	e787      	b.n	197c <_spi_interrupt_handler+0x4c>
    1a6c:	6823      	ldr	r3, [r4, #0]
    1a6e:	6a9b      	ldr	r3, [r3, #40]	; 0x28
    1a70:	8e63      	ldrh	r3, [r4, #50]	; 0x32
    1a72:	3b01      	subs	r3, #1
    1a74:	b29b      	uxth	r3, r3
    1a76:	8663      	strh	r3, [r4, #50]	; 0x32
    1a78:	8e63      	ldrh	r3, [r4, #50]	; 0x32
    1a7a:	b29b      	uxth	r3, r3
    1a7c:	2b00      	cmp	r3, #0
    1a7e:	d000      	beq.n	1a82 <_spi_interrupt_handler+0x152>
    1a80:	e77c      	b.n	197c <_spi_interrupt_handler+0x4c>
    1a82:	3304      	adds	r3, #4
    1a84:	7533      	strb	r3, [r6, #20]
    1a86:	2200      	movs	r2, #0
    1a88:	3334      	adds	r3, #52	; 0x34
    1a8a:	54e2      	strb	r2, [r4, r3]
    1a8c:	3b35      	subs	r3, #53	; 0x35
    1a8e:	7263      	strb	r3, [r4, #9]
    1a90:	07fb      	lsls	r3, r7, #31
    1a92:	d400      	bmi.n	1a96 <_spi_interrupt_handler+0x166>
    1a94:	e772      	b.n	197c <_spi_interrupt_handler+0x4c>
    1a96:	0020      	movs	r0, r4
    1a98:	68e3      	ldr	r3, [r4, #12]
    1a9a:	4798      	blx	r3
    1a9c:	e76e      	b.n	197c <_spi_interrupt_handler+0x4c>
    1a9e:	0a1b      	lsrs	r3, r3, #8
    1aa0:	7053      	strb	r3, [r2, #1]
    1aa2:	6aa3      	ldr	r3, [r4, #40]	; 0x28
    1aa4:	3301      	adds	r3, #1
    1aa6:	62a3      	str	r3, [r4, #40]	; 0x28
    1aa8:	e7c4      	b.n	1a34 <_spi_interrupt_handler+0x104>
    1aaa:	077b      	lsls	r3, r7, #29
    1aac:	d400      	bmi.n	1ab0 <_spi_interrupt_handler+0x180>
    1aae:	e765      	b.n	197c <_spi_interrupt_handler+0x4c>
    1ab0:	0020      	movs	r0, r4
    1ab2:	6963      	ldr	r3, [r4, #20]
    1ab4:	4798      	blx	r3
    1ab6:	e761      	b.n	197c <_spi_interrupt_handler+0x4c>
    1ab8:	7a63      	ldrb	r3, [r4, #9]
    1aba:	2b01      	cmp	r3, #1
    1abc:	d000      	beq.n	1ac0 <_spi_interrupt_handler+0x190>
    1abe:	e763      	b.n	1988 <_spi_interrupt_handler+0x58>
    1ac0:	79e3      	ldrb	r3, [r4, #7]
    1ac2:	2b00      	cmp	r3, #0
    1ac4:	d000      	beq.n	1ac8 <_spi_interrupt_handler+0x198>
    1ac6:	e75f      	b.n	1988 <_spi_interrupt_handler+0x58>
    1ac8:	3302      	adds	r3, #2
    1aca:	7533      	strb	r3, [r6, #20]
    1acc:	3301      	adds	r3, #1
    1ace:	7263      	strb	r3, [r4, #9]
    1ad0:	2200      	movs	r2, #0
    1ad2:	3335      	adds	r3, #53	; 0x35
    1ad4:	54e2      	strb	r2, [r4, r3]
    1ad6:	07fb      	lsls	r3, r7, #31
    1ad8:	d400      	bmi.n	1adc <_spi_interrupt_handler+0x1ac>
    1ada:	e755      	b.n	1988 <_spi_interrupt_handler+0x58>
    1adc:	0020      	movs	r0, r4
    1ade:	68e3      	ldr	r3, [r4, #12]
    1ae0:	4798      	blx	r3
    1ae2:	e751      	b.n	1988 <_spi_interrupt_handler+0x58>
    1ae4:	2380      	movs	r3, #128	; 0x80
    1ae6:	7533      	strb	r3, [r6, #20]
    1ae8:	7633      	strb	r3, [r6, #24]
    1aea:	067b      	lsls	r3, r7, #25
    1aec:	d400      	bmi.n	1af0 <_spi_interrupt_handler+0x1c0>
    1aee:	e74f      	b.n	1990 <_spi_interrupt_handler+0x60>
    1af0:	6a63      	ldr	r3, [r4, #36]	; 0x24
    1af2:	0020      	movs	r0, r4
    1af4:	4798      	blx	r3
    1af6:	e74b      	b.n	1990 <_spi_interrupt_handler+0x60>
    1af8:	200005ec 	.word	0x200005ec
    1afc:	20000604 	.word	0x20000604

00001b00 <usart_init>:
    1b00:	b5f0      	push	{r4, r5, r6, r7, lr}
    1b02:	46de      	mov	lr, fp
    1b04:	4657      	mov	r7, sl
    1b06:	464e      	mov	r6, r9
    1b08:	4645      	mov	r5, r8
    1b0a:	b5e0      	push	{r5, r6, r7, lr}
    1b0c:	b091      	sub	sp, #68	; 0x44
    1b0e:	0005      	movs	r5, r0
    1b10:	000c      	movs	r4, r1
    1b12:	0016      	movs	r6, r2
    1b14:	6029      	str	r1, [r5, #0]
    1b16:	0008      	movs	r0, r1
    1b18:	4bc4      	ldr	r3, [pc, #784]	; (1e2c <usart_init+0x32c>)
    1b1a:	4798      	blx	r3
    1b1c:	0002      	movs	r2, r0
    1b1e:	2805      	cmp	r0, #5
    1b20:	d00d      	beq.n	1b3e <usart_init+0x3e>
    1b22:	0007      	movs	r7, r0
    1b24:	3712      	adds	r7, #18
    1b26:	0003      	movs	r3, r0
    1b28:	6821      	ldr	r1, [r4, #0]
    1b2a:	2005      	movs	r0, #5
    1b2c:	07c9      	lsls	r1, r1, #31
    1b2e:	d509      	bpl.n	1b44 <usart_init+0x44>
    1b30:	b011      	add	sp, #68	; 0x44
    1b32:	bc3c      	pop	{r2, r3, r4, r5}
    1b34:	4690      	mov	r8, r2
    1b36:	4699      	mov	r9, r3
    1b38:	46a2      	mov	sl, r4
    1b3a:	46ab      	mov	fp, r5
    1b3c:	bdf0      	pop	{r4, r5, r6, r7, pc}
    1b3e:	2718      	movs	r7, #24
    1b40:	2301      	movs	r3, #1
    1b42:	e7f1      	b.n	1b28 <usart_init+0x28>
    1b44:	6821      	ldr	r1, [r4, #0]
    1b46:	3017      	adds	r0, #23
    1b48:	0789      	lsls	r1, r1, #30
    1b4a:	d4f1      	bmi.n	1b30 <usart_init+0x30>
    1b4c:	2a05      	cmp	r2, #5
    1b4e:	d047      	beq.n	1be0 <usart_init+0xe0>
    1b50:	49b7      	ldr	r1, [pc, #732]	; (1e30 <usart_init+0x330>)
    1b52:	69c8      	ldr	r0, [r1, #28]
    1b54:	2201      	movs	r2, #1
    1b56:	409a      	lsls	r2, r3
    1b58:	0013      	movs	r3, r2
    1b5a:	4303      	orrs	r3, r0
    1b5c:	61cb      	str	r3, [r1, #28]
    1b5e:	a90f      	add	r1, sp, #60	; 0x3c
    1b60:	232d      	movs	r3, #45	; 0x2d
    1b62:	4698      	mov	r8, r3
    1b64:	5cf3      	ldrb	r3, [r6, r3]
    1b66:	700b      	strb	r3, [r1, #0]
    1b68:	b2ff      	uxtb	r7, r7
    1b6a:	0038      	movs	r0, r7
    1b6c:	4bb1      	ldr	r3, [pc, #708]	; (1e34 <usart_init+0x334>)
    1b6e:	4798      	blx	r3
    1b70:	0038      	movs	r0, r7
    1b72:	4bb1      	ldr	r3, [pc, #708]	; (1e38 <usart_init+0x338>)
    1b74:	4798      	blx	r3
    1b76:	4643      	mov	r3, r8
    1b78:	5cf0      	ldrb	r0, [r6, r3]
    1b7a:	2100      	movs	r1, #0
    1b7c:	4baf      	ldr	r3, [pc, #700]	; (1e3c <usart_init+0x33c>)
    1b7e:	4798      	blx	r3
    1b80:	7af3      	ldrb	r3, [r6, #11]
    1b82:	716b      	strb	r3, [r5, #5]
    1b84:	2324      	movs	r3, #36	; 0x24
    1b86:	5cf3      	ldrb	r3, [r6, r3]
    1b88:	71ab      	strb	r3, [r5, #6]
    1b8a:	2325      	movs	r3, #37	; 0x25
    1b8c:	5cf3      	ldrb	r3, [r6, r3]
    1b8e:	71eb      	strb	r3, [r5, #7]
    1b90:	7ef3      	ldrb	r3, [r6, #27]
    1b92:	722b      	strb	r3, [r5, #8]
    1b94:	7f33      	ldrb	r3, [r6, #28]
    1b96:	726b      	strb	r3, [r5, #9]
    1b98:	682b      	ldr	r3, [r5, #0]
    1b9a:	4698      	mov	r8, r3
    1b9c:	0018      	movs	r0, r3
    1b9e:	4ba3      	ldr	r3, [pc, #652]	; (1e2c <usart_init+0x32c>)
    1ba0:	4798      	blx	r3
    1ba2:	3012      	adds	r0, #18
    1ba4:	2200      	movs	r2, #0
    1ba6:	230e      	movs	r3, #14
    1ba8:	a906      	add	r1, sp, #24
    1baa:	468c      	mov	ip, r1
    1bac:	4463      	add	r3, ip
    1bae:	801a      	strh	r2, [r3, #0]
    1bb0:	8a32      	ldrh	r2, [r6, #16]
    1bb2:	9202      	str	r2, [sp, #8]
    1bb4:	2380      	movs	r3, #128	; 0x80
    1bb6:	01db      	lsls	r3, r3, #7
    1bb8:	429a      	cmp	r2, r3
    1bba:	d100      	bne.n	1bbe <usart_init+0xbe>
    1bbc:	e0a9      	b.n	1d12 <usart_init+0x212>
    1bbe:	d917      	bls.n	1bf0 <usart_init+0xf0>
    1bc0:	23c0      	movs	r3, #192	; 0xc0
    1bc2:	01db      	lsls	r3, r3, #7
    1bc4:	9a02      	ldr	r2, [sp, #8]
    1bc6:	429a      	cmp	r2, r3
    1bc8:	d100      	bne.n	1bcc <usart_init+0xcc>
    1bca:	e09d      	b.n	1d08 <usart_init+0x208>
    1bcc:	2380      	movs	r3, #128	; 0x80
    1bce:	021b      	lsls	r3, r3, #8
    1bd0:	429a      	cmp	r2, r3
    1bd2:	d000      	beq.n	1bd6 <usart_init+0xd6>
    1bd4:	e125      	b.n	1e22 <usart_init+0x322>
    1bd6:	2303      	movs	r3, #3
    1bd8:	9306      	str	r3, [sp, #24]
    1bda:	2300      	movs	r3, #0
    1bdc:	9307      	str	r3, [sp, #28]
    1bde:	e010      	b.n	1c02 <usart_init+0x102>
    1be0:	4993      	ldr	r1, [pc, #588]	; (1e30 <usart_init+0x330>)
    1be2:	6a08      	ldr	r0, [r1, #32]
    1be4:	3a04      	subs	r2, #4
    1be6:	409a      	lsls	r2, r3
    1be8:	0013      	movs	r3, r2
    1bea:	4303      	orrs	r3, r0
    1bec:	620b      	str	r3, [r1, #32]
    1bee:	e7b6      	b.n	1b5e <usart_init+0x5e>
    1bf0:	2380      	movs	r3, #128	; 0x80
    1bf2:	019b      	lsls	r3, r3, #6
    1bf4:	429a      	cmp	r2, r3
    1bf6:	d000      	beq.n	1bfa <usart_init+0xfa>
    1bf8:	e113      	b.n	1e22 <usart_init+0x322>
    1bfa:	2310      	movs	r3, #16
    1bfc:	9306      	str	r3, [sp, #24]
    1bfe:	3b0f      	subs	r3, #15
    1c00:	9307      	str	r3, [sp, #28]
    1c02:	6833      	ldr	r3, [r6, #0]
    1c04:	9305      	str	r3, [sp, #20]
    1c06:	68f3      	ldr	r3, [r6, #12]
    1c08:	9303      	str	r3, [sp, #12]
    1c0a:	6973      	ldr	r3, [r6, #20]
    1c0c:	9304      	str	r3, [sp, #16]
    1c0e:	7e33      	ldrb	r3, [r6, #24]
    1c10:	469b      	mov	fp, r3
    1c12:	2326      	movs	r3, #38	; 0x26
    1c14:	5cf3      	ldrb	r3, [r6, r3]
    1c16:	469a      	mov	sl, r3
    1c18:	6873      	ldr	r3, [r6, #4]
    1c1a:	4699      	mov	r9, r3
    1c1c:	2b00      	cmp	r3, #0
    1c1e:	d100      	bne.n	1c22 <usart_init+0x122>
    1c20:	e09f      	b.n	1d62 <usart_init+0x262>
    1c22:	2380      	movs	r3, #128	; 0x80
    1c24:	055b      	lsls	r3, r3, #21
    1c26:	4599      	cmp	r9, r3
    1c28:	d104      	bne.n	1c34 <usart_init+0x134>
    1c2a:	2327      	movs	r3, #39	; 0x27
    1c2c:	5cf3      	ldrb	r3, [r6, r3]
    1c2e:	2b00      	cmp	r3, #0
    1c30:	d100      	bne.n	1c34 <usart_init+0x134>
    1c32:	e084      	b.n	1d3e <usart_init+0x23e>
    1c34:	7e73      	ldrb	r3, [r6, #25]
    1c36:	2b00      	cmp	r3, #0
    1c38:	d002      	beq.n	1c40 <usart_init+0x140>
    1c3a:	7eb3      	ldrb	r3, [r6, #26]
    1c3c:	4642      	mov	r2, r8
    1c3e:	7393      	strb	r3, [r2, #14]
    1c40:	682a      	ldr	r2, [r5, #0]
    1c42:	9f02      	ldr	r7, [sp, #8]
    1c44:	69d3      	ldr	r3, [r2, #28]
    1c46:	2b00      	cmp	r3, #0
    1c48:	d1fc      	bne.n	1c44 <usart_init+0x144>
    1c4a:	330e      	adds	r3, #14
    1c4c:	aa06      	add	r2, sp, #24
    1c4e:	4694      	mov	ip, r2
    1c50:	4463      	add	r3, ip
    1c52:	881b      	ldrh	r3, [r3, #0]
    1c54:	4642      	mov	r2, r8
    1c56:	8193      	strh	r3, [r2, #12]
    1c58:	9b05      	ldr	r3, [sp, #20]
    1c5a:	9a03      	ldr	r2, [sp, #12]
    1c5c:	4313      	orrs	r3, r2
    1c5e:	9a04      	ldr	r2, [sp, #16]
    1c60:	4313      	orrs	r3, r2
    1c62:	464a      	mov	r2, r9
    1c64:	4313      	orrs	r3, r2
    1c66:	431f      	orrs	r7, r3
    1c68:	465b      	mov	r3, fp
    1c6a:	021b      	lsls	r3, r3, #8
    1c6c:	431f      	orrs	r7, r3
    1c6e:	4653      	mov	r3, sl
    1c70:	075b      	lsls	r3, r3, #29
    1c72:	431f      	orrs	r7, r3
    1c74:	2327      	movs	r3, #39	; 0x27
    1c76:	5cf3      	ldrb	r3, [r6, r3]
    1c78:	2b00      	cmp	r3, #0
    1c7a:	d101      	bne.n	1c80 <usart_init+0x180>
    1c7c:	3304      	adds	r3, #4
    1c7e:	431f      	orrs	r7, r3
    1c80:	7e73      	ldrb	r3, [r6, #25]
    1c82:	029b      	lsls	r3, r3, #10
    1c84:	7f32      	ldrb	r2, [r6, #28]
    1c86:	0252      	lsls	r2, r2, #9
    1c88:	4313      	orrs	r3, r2
    1c8a:	7f72      	ldrb	r2, [r6, #29]
    1c8c:	0212      	lsls	r2, r2, #8
    1c8e:	4313      	orrs	r3, r2
    1c90:	2224      	movs	r2, #36	; 0x24
    1c92:	5cb2      	ldrb	r2, [r6, r2]
    1c94:	0452      	lsls	r2, r2, #17
    1c96:	4313      	orrs	r3, r2
    1c98:	2225      	movs	r2, #37	; 0x25
    1c9a:	5cb2      	ldrb	r2, [r6, r2]
    1c9c:	0412      	lsls	r2, r2, #16
    1c9e:	4313      	orrs	r3, r2
    1ca0:	7ab1      	ldrb	r1, [r6, #10]
    1ca2:	7af2      	ldrb	r2, [r6, #11]
    1ca4:	4311      	orrs	r1, r2
    1ca6:	4319      	orrs	r1, r3
    1ca8:	8933      	ldrh	r3, [r6, #8]
    1caa:	2bff      	cmp	r3, #255	; 0xff
    1cac:	d07d      	beq.n	1daa <usart_init+0x2aa>
    1cae:	2280      	movs	r2, #128	; 0x80
    1cb0:	0452      	lsls	r2, r2, #17
    1cb2:	4317      	orrs	r7, r2
    1cb4:	4319      	orrs	r1, r3
    1cb6:	232c      	movs	r3, #44	; 0x2c
    1cb8:	5cf3      	ldrb	r3, [r6, r3]
    1cba:	2b00      	cmp	r3, #0
    1cbc:	d103      	bne.n	1cc6 <usart_init+0x1c6>
    1cbe:	4b60      	ldr	r3, [pc, #384]	; (1e40 <usart_init+0x340>)
    1cc0:	789b      	ldrb	r3, [r3, #2]
    1cc2:	079b      	lsls	r3, r3, #30
    1cc4:	d501      	bpl.n	1cca <usart_init+0x1ca>
    1cc6:	2380      	movs	r3, #128	; 0x80
    1cc8:	431f      	orrs	r7, r3
    1cca:	682a      	ldr	r2, [r5, #0]
    1ccc:	69d3      	ldr	r3, [r2, #28]
    1cce:	2b00      	cmp	r3, #0
    1cd0:	d1fc      	bne.n	1ccc <usart_init+0x1cc>
    1cd2:	4643      	mov	r3, r8
    1cd4:	6059      	str	r1, [r3, #4]
    1cd6:	682a      	ldr	r2, [r5, #0]
    1cd8:	69d3      	ldr	r3, [r2, #28]
    1cda:	2b00      	cmp	r3, #0
    1cdc:	d1fc      	bne.n	1cd8 <usart_init+0x1d8>
    1cde:	4643      	mov	r3, r8
    1ce0:	601f      	str	r7, [r3, #0]
    1ce2:	ab0e      	add	r3, sp, #56	; 0x38
    1ce4:	2280      	movs	r2, #128	; 0x80
    1ce6:	701a      	strb	r2, [r3, #0]
    1ce8:	2200      	movs	r2, #0
    1cea:	705a      	strb	r2, [r3, #1]
    1cec:	70da      	strb	r2, [r3, #3]
    1cee:	709a      	strb	r2, [r3, #2]
    1cf0:	6b33      	ldr	r3, [r6, #48]	; 0x30
    1cf2:	930a      	str	r3, [sp, #40]	; 0x28
    1cf4:	6b73      	ldr	r3, [r6, #52]	; 0x34
    1cf6:	930b      	str	r3, [sp, #44]	; 0x2c
    1cf8:	6bb3      	ldr	r3, [r6, #56]	; 0x38
    1cfa:	930c      	str	r3, [sp, #48]	; 0x30
    1cfc:	6bf3      	ldr	r3, [r6, #60]	; 0x3c
    1cfe:	9302      	str	r3, [sp, #8]
    1d00:	930d      	str	r3, [sp, #52]	; 0x34
    1d02:	2700      	movs	r7, #0
    1d04:	ae0a      	add	r6, sp, #40	; 0x28
    1d06:	e05e      	b.n	1dc6 <usart_init+0x2c6>
    1d08:	2308      	movs	r3, #8
    1d0a:	9306      	str	r3, [sp, #24]
    1d0c:	3b07      	subs	r3, #7
    1d0e:	9307      	str	r3, [sp, #28]
    1d10:	e777      	b.n	1c02 <usart_init+0x102>
    1d12:	6833      	ldr	r3, [r6, #0]
    1d14:	9305      	str	r3, [sp, #20]
    1d16:	68f3      	ldr	r3, [r6, #12]
    1d18:	9303      	str	r3, [sp, #12]
    1d1a:	6973      	ldr	r3, [r6, #20]
    1d1c:	9304      	str	r3, [sp, #16]
    1d1e:	7e33      	ldrb	r3, [r6, #24]
    1d20:	469b      	mov	fp, r3
    1d22:	2326      	movs	r3, #38	; 0x26
    1d24:	5cf3      	ldrb	r3, [r6, r3]
    1d26:	469a      	mov	sl, r3
    1d28:	6873      	ldr	r3, [r6, #4]
    1d2a:	4699      	mov	r9, r3
    1d2c:	2b00      	cmp	r3, #0
    1d2e:	d014      	beq.n	1d5a <usart_init+0x25a>
    1d30:	2380      	movs	r3, #128	; 0x80
    1d32:	055b      	lsls	r3, r3, #21
    1d34:	4599      	cmp	r9, r3
    1d36:	d100      	bne.n	1d3a <usart_init+0x23a>
    1d38:	e777      	b.n	1c2a <usart_init+0x12a>
    1d3a:	2000      	movs	r0, #0
    1d3c:	e020      	b.n	1d80 <usart_init+0x280>
    1d3e:	6a33      	ldr	r3, [r6, #32]
    1d40:	001f      	movs	r7, r3
    1d42:	b2c0      	uxtb	r0, r0
    1d44:	4b3f      	ldr	r3, [pc, #252]	; (1e44 <usart_init+0x344>)
    1d46:	4798      	blx	r3
    1d48:	0001      	movs	r1, r0
    1d4a:	220e      	movs	r2, #14
    1d4c:	ab06      	add	r3, sp, #24
    1d4e:	469c      	mov	ip, r3
    1d50:	4462      	add	r2, ip
    1d52:	0038      	movs	r0, r7
    1d54:	4b3c      	ldr	r3, [pc, #240]	; (1e48 <usart_init+0x348>)
    1d56:	4798      	blx	r3
    1d58:	e012      	b.n	1d80 <usart_init+0x280>
    1d5a:	2308      	movs	r3, #8
    1d5c:	9306      	str	r3, [sp, #24]
    1d5e:	2300      	movs	r3, #0
    1d60:	9307      	str	r3, [sp, #28]
    1d62:	2327      	movs	r3, #39	; 0x27
    1d64:	5cf3      	ldrb	r3, [r6, r3]
    1d66:	2b00      	cmp	r3, #0
    1d68:	d00e      	beq.n	1d88 <usart_init+0x288>
    1d6a:	9b06      	ldr	r3, [sp, #24]
    1d6c:	9300      	str	r3, [sp, #0]
    1d6e:	9b07      	ldr	r3, [sp, #28]
    1d70:	220e      	movs	r2, #14
    1d72:	a906      	add	r1, sp, #24
    1d74:	468c      	mov	ip, r1
    1d76:	4462      	add	r2, ip
    1d78:	6ab1      	ldr	r1, [r6, #40]	; 0x28
    1d7a:	6a30      	ldr	r0, [r6, #32]
    1d7c:	4f33      	ldr	r7, [pc, #204]	; (1e4c <usart_init+0x34c>)
    1d7e:	47b8      	blx	r7
    1d80:	2800      	cmp	r0, #0
    1d82:	d000      	beq.n	1d86 <usart_init+0x286>
    1d84:	e6d4      	b.n	1b30 <usart_init+0x30>
    1d86:	e755      	b.n	1c34 <usart_init+0x134>
    1d88:	6a33      	ldr	r3, [r6, #32]
    1d8a:	001f      	movs	r7, r3
    1d8c:	b2c0      	uxtb	r0, r0
    1d8e:	4b2d      	ldr	r3, [pc, #180]	; (1e44 <usart_init+0x344>)
    1d90:	4798      	blx	r3
    1d92:	0001      	movs	r1, r0
    1d94:	9b06      	ldr	r3, [sp, #24]
    1d96:	9300      	str	r3, [sp, #0]
    1d98:	9b07      	ldr	r3, [sp, #28]
    1d9a:	220e      	movs	r2, #14
    1d9c:	a806      	add	r0, sp, #24
    1d9e:	4684      	mov	ip, r0
    1da0:	4462      	add	r2, ip
    1da2:	0038      	movs	r0, r7
    1da4:	4f29      	ldr	r7, [pc, #164]	; (1e4c <usart_init+0x34c>)
    1da6:	47b8      	blx	r7
    1da8:	e7ea      	b.n	1d80 <usart_init+0x280>
    1daa:	7ef3      	ldrb	r3, [r6, #27]
    1dac:	2b00      	cmp	r3, #0
    1dae:	d082      	beq.n	1cb6 <usart_init+0x1b6>
    1db0:	2380      	movs	r3, #128	; 0x80
    1db2:	04db      	lsls	r3, r3, #19
    1db4:	431f      	orrs	r7, r3
    1db6:	e77e      	b.n	1cb6 <usart_init+0x1b6>
    1db8:	0020      	movs	r0, r4
    1dba:	4b25      	ldr	r3, [pc, #148]	; (1e50 <usart_init+0x350>)
    1dbc:	4798      	blx	r3
    1dbe:	e007      	b.n	1dd0 <usart_init+0x2d0>
    1dc0:	3701      	adds	r7, #1
    1dc2:	2f04      	cmp	r7, #4
    1dc4:	d00d      	beq.n	1de2 <usart_init+0x2e2>
    1dc6:	b2f9      	uxtb	r1, r7
    1dc8:	00bb      	lsls	r3, r7, #2
    1dca:	5998      	ldr	r0, [r3, r6]
    1dcc:	2800      	cmp	r0, #0
    1dce:	d0f3      	beq.n	1db8 <usart_init+0x2b8>
    1dd0:	1c43      	adds	r3, r0, #1
    1dd2:	d0f5      	beq.n	1dc0 <usart_init+0x2c0>
    1dd4:	a90e      	add	r1, sp, #56	; 0x38
    1dd6:	7008      	strb	r0, [r1, #0]
    1dd8:	0c00      	lsrs	r0, r0, #16
    1dda:	b2c0      	uxtb	r0, r0
    1ddc:	4b1d      	ldr	r3, [pc, #116]	; (1e54 <usart_init+0x354>)
    1dde:	4798      	blx	r3
    1de0:	e7ee      	b.n	1dc0 <usart_init+0x2c0>
    1de2:	2300      	movs	r3, #0
    1de4:	60eb      	str	r3, [r5, #12]
    1de6:	612b      	str	r3, [r5, #16]
    1de8:	616b      	str	r3, [r5, #20]
    1dea:	61ab      	str	r3, [r5, #24]
    1dec:	61eb      	str	r3, [r5, #28]
    1dee:	622b      	str	r3, [r5, #32]
    1df0:	62ab      	str	r3, [r5, #40]	; 0x28
    1df2:	626b      	str	r3, [r5, #36]	; 0x24
    1df4:	2200      	movs	r2, #0
    1df6:	85eb      	strh	r3, [r5, #46]	; 0x2e
    1df8:	85ab      	strh	r3, [r5, #44]	; 0x2c
    1dfa:	3330      	adds	r3, #48	; 0x30
    1dfc:	54ea      	strb	r2, [r5, r3]
    1dfe:	3301      	adds	r3, #1
    1e00:	54ea      	strb	r2, [r5, r3]
    1e02:	3301      	adds	r3, #1
    1e04:	54ea      	strb	r2, [r5, r3]
    1e06:	3301      	adds	r3, #1
    1e08:	54ea      	strb	r2, [r5, r3]
    1e0a:	6828      	ldr	r0, [r5, #0]
    1e0c:	4b07      	ldr	r3, [pc, #28]	; (1e2c <usart_init+0x32c>)
    1e0e:	4798      	blx	r3
    1e10:	0004      	movs	r4, r0
    1e12:	4911      	ldr	r1, [pc, #68]	; (1e58 <usart_init+0x358>)
    1e14:	4b11      	ldr	r3, [pc, #68]	; (1e5c <usart_init+0x35c>)
    1e16:	4798      	blx	r3
    1e18:	00a4      	lsls	r4, r4, #2
    1e1a:	4b11      	ldr	r3, [pc, #68]	; (1e60 <usart_init+0x360>)
    1e1c:	50e5      	str	r5, [r4, r3]
    1e1e:	2000      	movs	r0, #0
    1e20:	e686      	b.n	1b30 <usart_init+0x30>
    1e22:	2310      	movs	r3, #16
    1e24:	9306      	str	r3, [sp, #24]
    1e26:	2300      	movs	r3, #0
    1e28:	9307      	str	r3, [sp, #28]
    1e2a:	e6ea      	b.n	1c02 <usart_init+0x102>
    1e2c:	00001549 	.word	0x00001549
    1e30:	40000400 	.word	0x40000400
    1e34:	000028d1 	.word	0x000028d1
    1e38:	00002861 	.word	0x00002861
    1e3c:	00001389 	.word	0x00001389
    1e40:	41002000 	.word	0x41002000
    1e44:	000028f5 	.word	0x000028f5
    1e48:	000012cb 	.word	0x000012cb
    1e4c:	000012f5 	.word	0x000012f5
    1e50:	000013d5 	.word	0x000013d5
    1e54:	000029cd 	.word	0x000029cd
    1e58:	00002011 	.word	0x00002011
    1e5c:	00001585 	.word	0x00001585
    1e60:	200005ec 	.word	0x200005ec

00001e64 <usart_write_wait>:
    1e64:	79c2      	ldrb	r2, [r0, #7]
    1e66:	231c      	movs	r3, #28
    1e68:	2a00      	cmp	r2, #0
    1e6a:	d101      	bne.n	1e70 <usart_write_wait+0xc>
    1e6c:	0018      	movs	r0, r3
    1e6e:	4770      	bx	lr
    1e70:	8dc2      	ldrh	r2, [r0, #46]	; 0x2e
    1e72:	b292      	uxth	r2, r2
    1e74:	3b17      	subs	r3, #23
    1e76:	2a00      	cmp	r2, #0
    1e78:	d1f8      	bne.n	1e6c <usart_write_wait+0x8>
    1e7a:	6803      	ldr	r3, [r0, #0]
    1e7c:	69da      	ldr	r2, [r3, #28]
    1e7e:	2a00      	cmp	r2, #0
    1e80:	d1fc      	bne.n	1e7c <usart_write_wait+0x18>
    1e82:	8519      	strh	r1, [r3, #40]	; 0x28
    1e84:	2102      	movs	r1, #2
    1e86:	7e1a      	ldrb	r2, [r3, #24]
    1e88:	420a      	tst	r2, r1
    1e8a:	d0fc      	beq.n	1e86 <usart_write_wait+0x22>
    1e8c:	2300      	movs	r3, #0
    1e8e:	e7ed      	b.n	1e6c <usart_write_wait+0x8>

00001e90 <usart_read_wait>:
    1e90:	7982      	ldrb	r2, [r0, #6]
    1e92:	231c      	movs	r3, #28
    1e94:	2a00      	cmp	r2, #0
    1e96:	d101      	bne.n	1e9c <usart_read_wait+0xc>
    1e98:	0018      	movs	r0, r3
    1e9a:	4770      	bx	lr
    1e9c:	8d82      	ldrh	r2, [r0, #44]	; 0x2c
    1e9e:	b292      	uxth	r2, r2
    1ea0:	3b17      	subs	r3, #23
    1ea2:	2a00      	cmp	r2, #0
    1ea4:	d1f8      	bne.n	1e98 <usart_read_wait+0x8>
    1ea6:	6802      	ldr	r2, [r0, #0]
    1ea8:	7e10      	ldrb	r0, [r2, #24]
    1eaa:	0740      	lsls	r0, r0, #29
    1eac:	d5f4      	bpl.n	1e98 <usart_read_wait+0x8>
    1eae:	69d3      	ldr	r3, [r2, #28]
    1eb0:	2b00      	cmp	r3, #0
    1eb2:	d1fc      	bne.n	1eae <usart_read_wait+0x1e>
    1eb4:	8b53      	ldrh	r3, [r2, #26]
    1eb6:	b2db      	uxtb	r3, r3
    1eb8:	0698      	lsls	r0, r3, #26
    1eba:	d01d      	beq.n	1ef8 <usart_read_wait+0x68>
    1ebc:	0798      	lsls	r0, r3, #30
    1ebe:	d503      	bpl.n	1ec8 <usart_read_wait+0x38>
    1ec0:	2302      	movs	r3, #2
    1ec2:	8353      	strh	r3, [r2, #26]
    1ec4:	3318      	adds	r3, #24
    1ec6:	e7e7      	b.n	1e98 <usart_read_wait+0x8>
    1ec8:	0758      	lsls	r0, r3, #29
    1eca:	d503      	bpl.n	1ed4 <usart_read_wait+0x44>
    1ecc:	2304      	movs	r3, #4
    1ece:	8353      	strh	r3, [r2, #26]
    1ed0:	331a      	adds	r3, #26
    1ed2:	e7e1      	b.n	1e98 <usart_read_wait+0x8>
    1ed4:	07d8      	lsls	r0, r3, #31
    1ed6:	d503      	bpl.n	1ee0 <usart_read_wait+0x50>
    1ed8:	2301      	movs	r3, #1
    1eda:	8353      	strh	r3, [r2, #26]
    1edc:	3312      	adds	r3, #18
    1ede:	e7db      	b.n	1e98 <usart_read_wait+0x8>
    1ee0:	06d8      	lsls	r0, r3, #27
    1ee2:	d503      	bpl.n	1eec <usart_read_wait+0x5c>
    1ee4:	2310      	movs	r3, #16
    1ee6:	8353      	strh	r3, [r2, #26]
    1ee8:	3332      	adds	r3, #50	; 0x32
    1eea:	e7d5      	b.n	1e98 <usart_read_wait+0x8>
    1eec:	069b      	lsls	r3, r3, #26
    1eee:	d503      	bpl.n	1ef8 <usart_read_wait+0x68>
    1ef0:	2320      	movs	r3, #32
    1ef2:	8353      	strh	r3, [r2, #26]
    1ef4:	3321      	adds	r3, #33	; 0x21
    1ef6:	e7cf      	b.n	1e98 <usart_read_wait+0x8>
    1ef8:	8d13      	ldrh	r3, [r2, #40]	; 0x28
    1efa:	800b      	strh	r3, [r1, #0]
    1efc:	2300      	movs	r3, #0
    1efe:	e7cb      	b.n	1e98 <usart_read_wait+0x8>

00001f00 <_usart_write_buffer>:
    1f00:	b5f8      	push	{r3, r4, r5, r6, r7, lr}
    1f02:	0006      	movs	r6, r0
    1f04:	000c      	movs	r4, r1
    1f06:	0015      	movs	r5, r2
    1f08:	6807      	ldr	r7, [r0, #0]
    1f0a:	4b0a      	ldr	r3, [pc, #40]	; (1f34 <_usart_write_buffer+0x34>)
    1f0c:	4798      	blx	r3
    1f0e:	8df3      	ldrh	r3, [r6, #46]	; 0x2e
    1f10:	b29b      	uxth	r3, r3
    1f12:	2b00      	cmp	r3, #0
    1f14:	d003      	beq.n	1f1e <_usart_write_buffer+0x1e>
    1f16:	4b08      	ldr	r3, [pc, #32]	; (1f38 <_usart_write_buffer+0x38>)
    1f18:	4798      	blx	r3
    1f1a:	2005      	movs	r0, #5
    1f1c:	bdf8      	pop	{r3, r4, r5, r6, r7, pc}
    1f1e:	85f5      	strh	r5, [r6, #46]	; 0x2e
    1f20:	4b05      	ldr	r3, [pc, #20]	; (1f38 <_usart_write_buffer+0x38>)
    1f22:	4798      	blx	r3
    1f24:	62b4      	str	r4, [r6, #40]	; 0x28
    1f26:	2205      	movs	r2, #5
    1f28:	2333      	movs	r3, #51	; 0x33
    1f2a:	54f2      	strb	r2, [r6, r3]
    1f2c:	3b32      	subs	r3, #50	; 0x32
    1f2e:	75bb      	strb	r3, [r7, #22]
    1f30:	2000      	movs	r0, #0
    1f32:	e7f3      	b.n	1f1c <_usart_write_buffer+0x1c>
    1f34:	00001089 	.word	0x00001089
    1f38:	000010c9 	.word	0x000010c9

00001f3c <_usart_read_buffer>:
    1f3c:	b5f8      	push	{r3, r4, r5, r6, r7, lr}
    1f3e:	0004      	movs	r4, r0
    1f40:	000d      	movs	r5, r1
    1f42:	0016      	movs	r6, r2
    1f44:	6807      	ldr	r7, [r0, #0]
    1f46:	4b0f      	ldr	r3, [pc, #60]	; (1f84 <_usart_read_buffer+0x48>)
    1f48:	4798      	blx	r3
    1f4a:	8da3      	ldrh	r3, [r4, #44]	; 0x2c
    1f4c:	b29b      	uxth	r3, r3
    1f4e:	2b00      	cmp	r3, #0
    1f50:	d003      	beq.n	1f5a <_usart_read_buffer+0x1e>
    1f52:	4b0d      	ldr	r3, [pc, #52]	; (1f88 <_usart_read_buffer+0x4c>)
    1f54:	4798      	blx	r3
    1f56:	2005      	movs	r0, #5
    1f58:	bdf8      	pop	{r3, r4, r5, r6, r7, pc}
    1f5a:	85a6      	strh	r6, [r4, #44]	; 0x2c
    1f5c:	4b0a      	ldr	r3, [pc, #40]	; (1f88 <_usart_read_buffer+0x4c>)
    1f5e:	4798      	blx	r3
    1f60:	6265      	str	r5, [r4, #36]	; 0x24
    1f62:	2205      	movs	r2, #5
    1f64:	2332      	movs	r3, #50	; 0x32
    1f66:	54e2      	strb	r2, [r4, r3]
    1f68:	3b2e      	subs	r3, #46	; 0x2e
    1f6a:	75bb      	strb	r3, [r7, #22]
    1f6c:	7a23      	ldrb	r3, [r4, #8]
    1f6e:	2b00      	cmp	r3, #0
    1f70:	d001      	beq.n	1f76 <_usart_read_buffer+0x3a>
    1f72:	2320      	movs	r3, #32
    1f74:	75bb      	strb	r3, [r7, #22]
    1f76:	7a63      	ldrb	r3, [r4, #9]
    1f78:	2000      	movs	r0, #0
    1f7a:	2b00      	cmp	r3, #0
    1f7c:	d0ec      	beq.n	1f58 <_usart_read_buffer+0x1c>
    1f7e:	2308      	movs	r3, #8
    1f80:	75bb      	strb	r3, [r7, #22]
    1f82:	e7e9      	b.n	1f58 <_usart_read_buffer+0x1c>
    1f84:	00001089 	.word	0x00001089
    1f88:	000010c9 	.word	0x000010c9

00001f8c <usart_register_callback>:
    1f8c:	1c93      	adds	r3, r2, #2
    1f8e:	009b      	lsls	r3, r3, #2
    1f90:	18c3      	adds	r3, r0, r3
    1f92:	6059      	str	r1, [r3, #4]
    1f94:	2130      	movs	r1, #48	; 0x30
    1f96:	2301      	movs	r3, #1
    1f98:	4093      	lsls	r3, r2
    1f9a:	001a      	movs	r2, r3
    1f9c:	5c43      	ldrb	r3, [r0, r1]
    1f9e:	4313      	orrs	r3, r2
    1fa0:	5443      	strb	r3, [r0, r1]
    1fa2:	4770      	bx	lr

00001fa4 <usart_write_job>:
    1fa4:	b510      	push	{r4, lr}
    1fa6:	79c2      	ldrb	r2, [r0, #7]
    1fa8:	231c      	movs	r3, #28
    1faa:	2a00      	cmp	r2, #0
    1fac:	d101      	bne.n	1fb2 <usart_write_job+0xe>
    1fae:	0018      	movs	r0, r3
    1fb0:	bd10      	pop	{r4, pc}
    1fb2:	2201      	movs	r2, #1
    1fb4:	4b01      	ldr	r3, [pc, #4]	; (1fbc <usart_write_job+0x18>)
    1fb6:	4798      	blx	r3
    1fb8:	0003      	movs	r3, r0
    1fba:	e7f8      	b.n	1fae <usart_write_job+0xa>
    1fbc:	00001f01 	.word	0x00001f01

00001fc0 <usart_read_job>:
    1fc0:	b510      	push	{r4, lr}
    1fc2:	2201      	movs	r2, #1
    1fc4:	4b01      	ldr	r3, [pc, #4]	; (1fcc <usart_read_job+0xc>)
    1fc6:	4798      	blx	r3
    1fc8:	bd10      	pop	{r4, pc}
    1fca:	46c0      	nop			; (mov r8, r8)
    1fcc:	00001f3d 	.word	0x00001f3d

00001fd0 <usart_write_buffer_job>:
    1fd0:	b510      	push	{r4, lr}
    1fd2:	2317      	movs	r3, #23
    1fd4:	2a00      	cmp	r2, #0
    1fd6:	d101      	bne.n	1fdc <usart_write_buffer_job+0xc>
    1fd8:	0018      	movs	r0, r3
    1fda:	bd10      	pop	{r4, pc}
    1fdc:	79c4      	ldrb	r4, [r0, #7]
    1fde:	3305      	adds	r3, #5
    1fe0:	2c00      	cmp	r4, #0
    1fe2:	d0f9      	beq.n	1fd8 <usart_write_buffer_job+0x8>
    1fe4:	4b01      	ldr	r3, [pc, #4]	; (1fec <usart_write_buffer_job+0x1c>)
    1fe6:	4798      	blx	r3
    1fe8:	0003      	movs	r3, r0
    1fea:	e7f5      	b.n	1fd8 <usart_write_buffer_job+0x8>
    1fec:	00001f01 	.word	0x00001f01

00001ff0 <usart_read_buffer_job>:
    1ff0:	b510      	push	{r4, lr}
    1ff2:	2317      	movs	r3, #23
    1ff4:	2a00      	cmp	r2, #0
    1ff6:	d101      	bne.n	1ffc <usart_read_buffer_job+0xc>
    1ff8:	0018      	movs	r0, r3
    1ffa:	bd10      	pop	{r4, pc}
    1ffc:	7984      	ldrb	r4, [r0, #6]
    1ffe:	3305      	adds	r3, #5
    2000:	2c00      	cmp	r4, #0
    2002:	d0f9      	beq.n	1ff8 <usart_read_buffer_job+0x8>
    2004:	4b01      	ldr	r3, [pc, #4]	; (200c <STACK_SIZE+0xc>)
    2006:	4798      	blx	r3
    2008:	0003      	movs	r3, r0
    200a:	e7f5      	b.n	1ff8 <usart_read_buffer_job+0x8>
    200c:	00001f3d 	.word	0x00001f3d

00002010 <_usart_interrupt_handler>:
    2010:	b5f8      	push	{r3, r4, r5, r6, r7, lr}
    2012:	0080      	lsls	r0, r0, #2
    2014:	4b62      	ldr	r3, [pc, #392]	; (21a0 <_usart_interrupt_handler+0x190>)
    2016:	58c5      	ldr	r5, [r0, r3]
    2018:	682c      	ldr	r4, [r5, #0]
    201a:	69e3      	ldr	r3, [r4, #28]
    201c:	2b00      	cmp	r3, #0
    201e:	d1fc      	bne.n	201a <_usart_interrupt_handler+0xa>
    2020:	7e23      	ldrb	r3, [r4, #24]
    2022:	7da6      	ldrb	r6, [r4, #22]
    2024:	401e      	ands	r6, r3
    2026:	2330      	movs	r3, #48	; 0x30
    2028:	5ceb      	ldrb	r3, [r5, r3]
    202a:	2231      	movs	r2, #49	; 0x31
    202c:	5caf      	ldrb	r7, [r5, r2]
    202e:	401f      	ands	r7, r3
    2030:	07f3      	lsls	r3, r6, #31
    2032:	d522      	bpl.n	207a <_usart_interrupt_handler+0x6a>
    2034:	8deb      	ldrh	r3, [r5, #46]	; 0x2e
    2036:	b29b      	uxth	r3, r3
    2038:	2b00      	cmp	r3, #0
    203a:	d01c      	beq.n	2076 <_usart_interrupt_handler+0x66>
    203c:	6aaa      	ldr	r2, [r5, #40]	; 0x28
    203e:	7813      	ldrb	r3, [r2, #0]
    2040:	b2db      	uxtb	r3, r3
    2042:	1c51      	adds	r1, r2, #1
    2044:	62a9      	str	r1, [r5, #40]	; 0x28
    2046:	7969      	ldrb	r1, [r5, #5]
    2048:	2901      	cmp	r1, #1
    204a:	d00e      	beq.n	206a <_usart_interrupt_handler+0x5a>
    204c:	b29b      	uxth	r3, r3
    204e:	05db      	lsls	r3, r3, #23
    2050:	0ddb      	lsrs	r3, r3, #23
    2052:	8523      	strh	r3, [r4, #40]	; 0x28
    2054:	8deb      	ldrh	r3, [r5, #46]	; 0x2e
    2056:	3b01      	subs	r3, #1
    2058:	b29b      	uxth	r3, r3
    205a:	85eb      	strh	r3, [r5, #46]	; 0x2e
    205c:	2b00      	cmp	r3, #0
    205e:	d10c      	bne.n	207a <_usart_interrupt_handler+0x6a>
    2060:	3301      	adds	r3, #1
    2062:	7523      	strb	r3, [r4, #20]
    2064:	3301      	adds	r3, #1
    2066:	75a3      	strb	r3, [r4, #22]
    2068:	e007      	b.n	207a <_usart_interrupt_handler+0x6a>
    206a:	7851      	ldrb	r1, [r2, #1]
    206c:	0209      	lsls	r1, r1, #8
    206e:	430b      	orrs	r3, r1
    2070:	3202      	adds	r2, #2
    2072:	62aa      	str	r2, [r5, #40]	; 0x28
    2074:	e7eb      	b.n	204e <_usart_interrupt_handler+0x3e>
    2076:	2301      	movs	r3, #1
    2078:	7523      	strb	r3, [r4, #20]
    207a:	07b3      	lsls	r3, r6, #30
    207c:	d506      	bpl.n	208c <_usart_interrupt_handler+0x7c>
    207e:	2302      	movs	r3, #2
    2080:	7523      	strb	r3, [r4, #20]
    2082:	2200      	movs	r2, #0
    2084:	3331      	adds	r3, #49	; 0x31
    2086:	54ea      	strb	r2, [r5, r3]
    2088:	07fb      	lsls	r3, r7, #31
    208a:	d41a      	bmi.n	20c2 <_usart_interrupt_handler+0xb2>
    208c:	0773      	lsls	r3, r6, #29
    208e:	d565      	bpl.n	215c <_usart_interrupt_handler+0x14c>
    2090:	8dab      	ldrh	r3, [r5, #44]	; 0x2c
    2092:	b29b      	uxth	r3, r3
    2094:	2b00      	cmp	r3, #0
    2096:	d05f      	beq.n	2158 <_usart_interrupt_handler+0x148>
    2098:	8b63      	ldrh	r3, [r4, #26]
    209a:	b2db      	uxtb	r3, r3
    209c:	071a      	lsls	r2, r3, #28
    209e:	d414      	bmi.n	20ca <_usart_interrupt_handler+0xba>
    20a0:	223f      	movs	r2, #63	; 0x3f
    20a2:	4013      	ands	r3, r2
    20a4:	2b00      	cmp	r3, #0
    20a6:	d034      	beq.n	2112 <_usart_interrupt_handler+0x102>
    20a8:	079a      	lsls	r2, r3, #30
    20aa:	d511      	bpl.n	20d0 <_usart_interrupt_handler+0xc0>
    20ac:	221a      	movs	r2, #26
    20ae:	2332      	movs	r3, #50	; 0x32
    20b0:	54ea      	strb	r2, [r5, r3]
    20b2:	3b30      	subs	r3, #48	; 0x30
    20b4:	8363      	strh	r3, [r4, #26]
    20b6:	077b      	lsls	r3, r7, #29
    20b8:	d550      	bpl.n	215c <_usart_interrupt_handler+0x14c>
    20ba:	0028      	movs	r0, r5
    20bc:	696b      	ldr	r3, [r5, #20]
    20be:	4798      	blx	r3
    20c0:	e04c      	b.n	215c <_usart_interrupt_handler+0x14c>
    20c2:	0028      	movs	r0, r5
    20c4:	68eb      	ldr	r3, [r5, #12]
    20c6:	4798      	blx	r3
    20c8:	e7e0      	b.n	208c <_usart_interrupt_handler+0x7c>
    20ca:	2237      	movs	r2, #55	; 0x37
    20cc:	4013      	ands	r3, r2
    20ce:	e7e9      	b.n	20a4 <_usart_interrupt_handler+0x94>
    20d0:	075a      	lsls	r2, r3, #29
    20d2:	d505      	bpl.n	20e0 <_usart_interrupt_handler+0xd0>
    20d4:	221e      	movs	r2, #30
    20d6:	2332      	movs	r3, #50	; 0x32
    20d8:	54ea      	strb	r2, [r5, r3]
    20da:	3b2e      	subs	r3, #46	; 0x2e
    20dc:	8363      	strh	r3, [r4, #26]
    20de:	e7ea      	b.n	20b6 <_usart_interrupt_handler+0xa6>
    20e0:	07da      	lsls	r2, r3, #31
    20e2:	d505      	bpl.n	20f0 <_usart_interrupt_handler+0xe0>
    20e4:	2213      	movs	r2, #19
    20e6:	2332      	movs	r3, #50	; 0x32
    20e8:	54ea      	strb	r2, [r5, r3]
    20ea:	3b31      	subs	r3, #49	; 0x31
    20ec:	8363      	strh	r3, [r4, #26]
    20ee:	e7e2      	b.n	20b6 <_usart_interrupt_handler+0xa6>
    20f0:	06da      	lsls	r2, r3, #27
    20f2:	d505      	bpl.n	2100 <_usart_interrupt_handler+0xf0>
    20f4:	2242      	movs	r2, #66	; 0x42
    20f6:	2332      	movs	r3, #50	; 0x32
    20f8:	54ea      	strb	r2, [r5, r3]
    20fa:	3b22      	subs	r3, #34	; 0x22
    20fc:	8363      	strh	r3, [r4, #26]
    20fe:	e7da      	b.n	20b6 <_usart_interrupt_handler+0xa6>
    2100:	2220      	movs	r2, #32
    2102:	421a      	tst	r2, r3
    2104:	d0d7      	beq.n	20b6 <_usart_interrupt_handler+0xa6>
    2106:	3221      	adds	r2, #33	; 0x21
    2108:	2332      	movs	r3, #50	; 0x32
    210a:	54ea      	strb	r2, [r5, r3]
    210c:	3b12      	subs	r3, #18
    210e:	8363      	strh	r3, [r4, #26]
    2110:	e7d1      	b.n	20b6 <_usart_interrupt_handler+0xa6>
    2112:	8d23      	ldrh	r3, [r4, #40]	; 0x28
    2114:	05db      	lsls	r3, r3, #23
    2116:	0ddb      	lsrs	r3, r3, #23
    2118:	b2da      	uxtb	r2, r3
    211a:	6a69      	ldr	r1, [r5, #36]	; 0x24
    211c:	700a      	strb	r2, [r1, #0]
    211e:	6a6a      	ldr	r2, [r5, #36]	; 0x24
    2120:	1c51      	adds	r1, r2, #1
    2122:	6269      	str	r1, [r5, #36]	; 0x24
    2124:	7969      	ldrb	r1, [r5, #5]
    2126:	2901      	cmp	r1, #1
    2128:	d010      	beq.n	214c <_usart_interrupt_handler+0x13c>
    212a:	8dab      	ldrh	r3, [r5, #44]	; 0x2c
    212c:	3b01      	subs	r3, #1
    212e:	b29b      	uxth	r3, r3
    2130:	85ab      	strh	r3, [r5, #44]	; 0x2c
    2132:	2b00      	cmp	r3, #0
    2134:	d112      	bne.n	215c <_usart_interrupt_handler+0x14c>
    2136:	3304      	adds	r3, #4
    2138:	7523      	strb	r3, [r4, #20]
    213a:	2200      	movs	r2, #0
    213c:	332e      	adds	r3, #46	; 0x2e
    213e:	54ea      	strb	r2, [r5, r3]
    2140:	07bb      	lsls	r3, r7, #30
    2142:	d50b      	bpl.n	215c <_usart_interrupt_handler+0x14c>
    2144:	0028      	movs	r0, r5
    2146:	692b      	ldr	r3, [r5, #16]
    2148:	4798      	blx	r3
    214a:	e007      	b.n	215c <_usart_interrupt_handler+0x14c>
    214c:	0a1b      	lsrs	r3, r3, #8
    214e:	7053      	strb	r3, [r2, #1]
    2150:	6a6b      	ldr	r3, [r5, #36]	; 0x24
    2152:	3301      	adds	r3, #1
    2154:	626b      	str	r3, [r5, #36]	; 0x24
    2156:	e7e8      	b.n	212a <_usart_interrupt_handler+0x11a>
    2158:	2304      	movs	r3, #4
    215a:	7523      	strb	r3, [r4, #20]
    215c:	06f3      	lsls	r3, r6, #27
    215e:	d504      	bpl.n	216a <_usart_interrupt_handler+0x15a>
    2160:	2310      	movs	r3, #16
    2162:	7523      	strb	r3, [r4, #20]
    2164:	7623      	strb	r3, [r4, #24]
    2166:	06fb      	lsls	r3, r7, #27
    2168:	d40e      	bmi.n	2188 <_usart_interrupt_handler+0x178>
    216a:	06b3      	lsls	r3, r6, #26
    216c:	d504      	bpl.n	2178 <_usart_interrupt_handler+0x168>
    216e:	2320      	movs	r3, #32
    2170:	7523      	strb	r3, [r4, #20]
    2172:	7623      	strb	r3, [r4, #24]
    2174:	073b      	lsls	r3, r7, #28
    2176:	d40b      	bmi.n	2190 <_usart_interrupt_handler+0x180>
    2178:	0733      	lsls	r3, r6, #28
    217a:	d504      	bpl.n	2186 <_usart_interrupt_handler+0x176>
    217c:	2308      	movs	r3, #8
    217e:	7523      	strb	r3, [r4, #20]
    2180:	7623      	strb	r3, [r4, #24]
    2182:	06bb      	lsls	r3, r7, #26
    2184:	d408      	bmi.n	2198 <_usart_interrupt_handler+0x188>
    2186:	bdf8      	pop	{r3, r4, r5, r6, r7, pc}
    2188:	0028      	movs	r0, r5
    218a:	69eb      	ldr	r3, [r5, #28]
    218c:	4798      	blx	r3
    218e:	e7ec      	b.n	216a <_usart_interrupt_handler+0x15a>
    2190:	0028      	movs	r0, r5
    2192:	69ab      	ldr	r3, [r5, #24]
    2194:	4798      	blx	r3
    2196:	e7ef      	b.n	2178 <_usart_interrupt_handler+0x168>
    2198:	6a2b      	ldr	r3, [r5, #32]
    219a:	0028      	movs	r0, r5
    219c:	4798      	blx	r3
    219e:	e7f2      	b.n	2186 <_usart_interrupt_handler+0x176>
    21a0:	200005ec 	.word	0x200005ec

000021a4 <system_clock_source_get_hz>:
    21a4:	b510      	push	{r4, lr}
    21a6:	2808      	cmp	r0, #8
    21a8:	d803      	bhi.n	21b2 <system_clock_source_get_hz+0xe>
    21aa:	0080      	lsls	r0, r0, #2
    21ac:	4b1d      	ldr	r3, [pc, #116]	; (2224 <system_clock_source_get_hz+0x80>)
    21ae:	581b      	ldr	r3, [r3, r0]
    21b0:	469f      	mov	pc, r3
    21b2:	2000      	movs	r0, #0
    21b4:	e034      	b.n	2220 <system_clock_source_get_hz+0x7c>
    21b6:	4b1c      	ldr	r3, [pc, #112]	; (2228 <system_clock_source_get_hz+0x84>)
    21b8:	6918      	ldr	r0, [r3, #16]
    21ba:	e031      	b.n	2220 <system_clock_source_get_hz+0x7c>
    21bc:	4b1b      	ldr	r3, [pc, #108]	; (222c <system_clock_source_get_hz+0x88>)
    21be:	7d18      	ldrb	r0, [r3, #20]
    21c0:	0700      	lsls	r0, r0, #28
    21c2:	0f80      	lsrs	r0, r0, #30
    21c4:	1c43      	adds	r3, r0, #1
    21c6:	481a      	ldr	r0, [pc, #104]	; (2230 <system_clock_source_get_hz+0x8c>)
    21c8:	4358      	muls	r0, r3
    21ca:	e029      	b.n	2220 <system_clock_source_get_hz+0x7c>
    21cc:	4b16      	ldr	r3, [pc, #88]	; (2228 <system_clock_source_get_hz+0x84>)
    21ce:	6958      	ldr	r0, [r3, #20]
    21d0:	e026      	b.n	2220 <system_clock_source_get_hz+0x7c>
    21d2:	4b15      	ldr	r3, [pc, #84]	; (2228 <system_clock_source_get_hz+0x84>)
    21d4:	681b      	ldr	r3, [r3, #0]
    21d6:	2000      	movs	r0, #0
    21d8:	079b      	lsls	r3, r3, #30
    21da:	d521      	bpl.n	2220 <system_clock_source_get_hz+0x7c>
    21dc:	4913      	ldr	r1, [pc, #76]	; (222c <system_clock_source_get_hz+0x88>)
    21de:	2280      	movs	r2, #128	; 0x80
    21e0:	0052      	lsls	r2, r2, #1
    21e2:	68cb      	ldr	r3, [r1, #12]
    21e4:	4213      	tst	r3, r2
    21e6:	d0fc      	beq.n	21e2 <system_clock_source_get_hz+0x3e>
    21e8:	4b0f      	ldr	r3, [pc, #60]	; (2228 <system_clock_source_get_hz+0x84>)
    21ea:	681a      	ldr	r2, [r3, #0]
    21ec:	2324      	movs	r3, #36	; 0x24
    21ee:	4013      	ands	r3, r2
    21f0:	2b04      	cmp	r3, #4
    21f2:	d001      	beq.n	21f8 <system_clock_source_get_hz+0x54>
    21f4:	480f      	ldr	r0, [pc, #60]	; (2234 <system_clock_source_get_hz+0x90>)
    21f6:	e013      	b.n	2220 <system_clock_source_get_hz+0x7c>
    21f8:	2000      	movs	r0, #0
    21fa:	4b0f      	ldr	r3, [pc, #60]	; (2238 <system_clock_source_get_hz+0x94>)
    21fc:	4798      	blx	r3
    21fe:	4b0a      	ldr	r3, [pc, #40]	; (2228 <system_clock_source_get_hz+0x84>)
    2200:	689b      	ldr	r3, [r3, #8]
    2202:	041b      	lsls	r3, r3, #16
    2204:	0c1b      	lsrs	r3, r3, #16
    2206:	4358      	muls	r0, r3
    2208:	e00a      	b.n	2220 <system_clock_source_get_hz+0x7c>
    220a:	2328      	movs	r3, #40	; 0x28
    220c:	4a07      	ldr	r2, [pc, #28]	; (222c <system_clock_source_get_hz+0x88>)
    220e:	5cd3      	ldrb	r3, [r2, r3]
    2210:	2000      	movs	r0, #0
    2212:	079b      	lsls	r3, r3, #30
    2214:	d504      	bpl.n	2220 <system_clock_source_get_hz+0x7c>
    2216:	4b04      	ldr	r3, [pc, #16]	; (2228 <system_clock_source_get_hz+0x84>)
    2218:	68d8      	ldr	r0, [r3, #12]
    221a:	e001      	b.n	2220 <system_clock_source_get_hz+0x7c>
    221c:	2080      	movs	r0, #128	; 0x80
    221e:	0200      	lsls	r0, r0, #8
    2220:	bd10      	pop	{r4, pc}
    2222:	46c0      	nop			; (mov r8, r8)
    2224:	00004054 	.word	0x00004054
    2228:	200000c0 	.word	0x200000c0
    222c:	40000c00 	.word	0x40000c00
    2230:	003d0900 	.word	0x003d0900
    2234:	02dc6c00 	.word	0x02dc6c00
    2238:	000028f5 	.word	0x000028f5

0000223c <system_clock_source_osc16m_set_config>:
    223c:	b570      	push	{r4, r5, r6, lr}
    223e:	4c0b      	ldr	r4, [pc, #44]	; (226c <system_clock_source_osc16m_set_config+0x30>)
    2240:	7d23      	ldrb	r3, [r4, #20]
    2242:	7885      	ldrb	r5, [r0, #2]
    2244:	7846      	ldrb	r6, [r0, #1]
    2246:	7802      	ldrb	r2, [r0, #0]
    2248:	2103      	movs	r1, #3
    224a:	4011      	ands	r1, r2
    224c:	0089      	lsls	r1, r1, #2
    224e:	220c      	movs	r2, #12
    2250:	4393      	bics	r3, r2
    2252:	430b      	orrs	r3, r1
    2254:	3a0b      	subs	r2, #11
    2256:	4032      	ands	r2, r6
    2258:	0192      	lsls	r2, r2, #6
    225a:	2140      	movs	r1, #64	; 0x40
    225c:	438b      	bics	r3, r1
    225e:	4313      	orrs	r3, r2
    2260:	01ed      	lsls	r5, r5, #7
    2262:	227f      	movs	r2, #127	; 0x7f
    2264:	4013      	ands	r3, r2
    2266:	432b      	orrs	r3, r5
    2268:	7523      	strb	r3, [r4, #20]
    226a:	bd70      	pop	{r4, r5, r6, pc}
    226c:	40000c00 	.word	0x40000c00

00002270 <system_clock_source_xosc32k_set_config>:
    2270:	b5f0      	push	{r4, r5, r6, r7, lr}
    2272:	46d6      	mov	lr, sl
    2274:	464f      	mov	r7, r9
    2276:	4646      	mov	r6, r8
    2278:	b5c0      	push	{r6, r7, lr}
    227a:	4b20      	ldr	r3, [pc, #128]	; (22fc <system_clock_source_xosc32k_set_config+0x8c>)
    227c:	469a      	mov	sl, r3
    227e:	695b      	ldr	r3, [r3, #20]
    2280:	7845      	ldrb	r5, [r0, #1]
    2282:	7801      	ldrb	r1, [r0, #0]
    2284:	424c      	negs	r4, r1
    2286:	414c      	adcs	r4, r1
    2288:	46a1      	mov	r9, r4
    228a:	7881      	ldrb	r1, [r0, #2]
    228c:	468c      	mov	ip, r1
    228e:	78c1      	ldrb	r1, [r0, #3]
    2290:	4688      	mov	r8, r1
    2292:	7a46      	ldrb	r6, [r0, #9]
    2294:	7a07      	ldrb	r7, [r0, #8]
    2296:	7a84      	ldrb	r4, [r0, #10]
    2298:	6840      	ldr	r0, [r0, #4]
    229a:	4919      	ldr	r1, [pc, #100]	; (2300 <system_clock_source_xosc32k_set_config+0x90>)
    229c:	6148      	str	r0, [r1, #20]
    229e:	2101      	movs	r1, #1
    22a0:	4648      	mov	r0, r9
    22a2:	0080      	lsls	r0, r0, #2
    22a4:	2204      	movs	r2, #4
    22a6:	4393      	bics	r3, r2
    22a8:	4303      	orrs	r3, r0
    22aa:	4640      	mov	r0, r8
    22ac:	4008      	ands	r0, r1
    22ae:	00c0      	lsls	r0, r0, #3
    22b0:	3204      	adds	r2, #4
    22b2:	4393      	bics	r3, r2
    22b4:	4303      	orrs	r3, r0
    22b6:	4660      	mov	r0, ip
    22b8:	4008      	ands	r0, r1
    22ba:	0100      	lsls	r0, r0, #4
    22bc:	3208      	adds	r2, #8
    22be:	4393      	bics	r3, r2
    22c0:	4303      	orrs	r3, r0
    22c2:	400f      	ands	r7, r1
    22c4:	01bf      	lsls	r7, r7, #6
    22c6:	2040      	movs	r0, #64	; 0x40
    22c8:	4383      	bics	r3, r0
    22ca:	433b      	orrs	r3, r7
    22cc:	400e      	ands	r6, r1
    22ce:	01f6      	lsls	r6, r6, #7
    22d0:	3040      	adds	r0, #64	; 0x40
    22d2:	4383      	bics	r3, r0
    22d4:	4333      	orrs	r3, r6
    22d6:	3879      	subs	r0, #121	; 0x79
    22d8:	4005      	ands	r5, r0
    22da:	022d      	lsls	r5, r5, #8
    22dc:	4809      	ldr	r0, [pc, #36]	; (2304 <system_clock_source_xosc32k_set_config+0x94>)
    22de:	4003      	ands	r3, r0
    22e0:	432b      	orrs	r3, r5
    22e2:	4021      	ands	r1, r4
    22e4:	0309      	lsls	r1, r1, #12
    22e6:	4808      	ldr	r0, [pc, #32]	; (2308 <system_clock_source_xosc32k_set_config+0x98>)
    22e8:	4003      	ands	r3, r0
    22ea:	430b      	orrs	r3, r1
    22ec:	4652      	mov	r2, sl
    22ee:	6153      	str	r3, [r2, #20]
    22f0:	bc1c      	pop	{r2, r3, r4}
    22f2:	4690      	mov	r8, r2
    22f4:	4699      	mov	r9, r3
    22f6:	46a2      	mov	sl, r4
    22f8:	bdf0      	pop	{r4, r5, r6, r7, pc}
    22fa:	46c0      	nop			; (mov r8, r8)
    22fc:	40001000 	.word	0x40001000
    2300:	200000c0 	.word	0x200000c0
    2304:	fffff8ff 	.word	0xfffff8ff
    2308:	ffffefff 	.word	0xffffefff

0000230c <system_clock_source_dfll_set_config>:
    230c:	b510      	push	{r4, lr}
    230e:	7a83      	ldrb	r3, [r0, #10]
    2310:	069b      	lsls	r3, r3, #26
    2312:	0c1b      	lsrs	r3, r3, #16
    2314:	8982      	ldrh	r2, [r0, #12]
    2316:	0592      	lsls	r2, r2, #22
    2318:	0d92      	lsrs	r2, r2, #22
    231a:	4313      	orrs	r3, r2
    231c:	491a      	ldr	r1, [pc, #104]	; (2388 <system_clock_source_dfll_set_config+0x7c>)
    231e:	604b      	str	r3, [r1, #4]
    2320:	7a03      	ldrb	r3, [r0, #8]
    2322:	7a42      	ldrb	r2, [r0, #9]
    2324:	4313      	orrs	r3, r2
    2326:	8882      	ldrh	r2, [r0, #4]
    2328:	88c4      	ldrh	r4, [r0, #6]
    232a:	4322      	orrs	r2, r4
    232c:	4313      	orrs	r3, r2
    232e:	7842      	ldrb	r2, [r0, #1]
    2330:	01d2      	lsls	r2, r2, #7
    2332:	4313      	orrs	r3, r2
    2334:	7882      	ldrb	r2, [r0, #2]
    2336:	0192      	lsls	r2, r2, #6
    2338:	4313      	orrs	r3, r2
    233a:	600b      	str	r3, [r1, #0]
    233c:	7803      	ldrb	r3, [r0, #0]
    233e:	2b04      	cmp	r3, #4
    2340:	d011      	beq.n	2366 <system_clock_source_dfll_set_config+0x5a>
    2342:	2b20      	cmp	r3, #32
    2344:	d10e      	bne.n	2364 <system_clock_source_dfll_set_config+0x58>
    2346:	7b83      	ldrb	r3, [r0, #14]
    2348:	069b      	lsls	r3, r3, #26
    234a:	8a42      	ldrh	r2, [r0, #18]
    234c:	4313      	orrs	r3, r2
    234e:	8a02      	ldrh	r2, [r0, #16]
    2350:	0412      	lsls	r2, r2, #16
    2352:	490e      	ldr	r1, [pc, #56]	; (238c <system_clock_source_dfll_set_config+0x80>)
    2354:	400a      	ands	r2, r1
    2356:	4313      	orrs	r3, r2
    2358:	4a0b      	ldr	r2, [pc, #44]	; (2388 <system_clock_source_dfll_set_config+0x7c>)
    235a:	6093      	str	r3, [r2, #8]
    235c:	6811      	ldr	r1, [r2, #0]
    235e:	4b0c      	ldr	r3, [pc, #48]	; (2390 <system_clock_source_dfll_set_config+0x84>)
    2360:	430b      	orrs	r3, r1
    2362:	6013      	str	r3, [r2, #0]
    2364:	bd10      	pop	{r4, pc}
    2366:	7b83      	ldrb	r3, [r0, #14]
    2368:	069b      	lsls	r3, r3, #26
    236a:	8a42      	ldrh	r2, [r0, #18]
    236c:	4313      	orrs	r3, r2
    236e:	8a02      	ldrh	r2, [r0, #16]
    2370:	0412      	lsls	r2, r2, #16
    2372:	4906      	ldr	r1, [pc, #24]	; (238c <system_clock_source_dfll_set_config+0x80>)
    2374:	400a      	ands	r2, r1
    2376:	4313      	orrs	r3, r2
    2378:	4a03      	ldr	r2, [pc, #12]	; (2388 <system_clock_source_dfll_set_config+0x7c>)
    237a:	6093      	str	r3, [r2, #8]
    237c:	6813      	ldr	r3, [r2, #0]
    237e:	2104      	movs	r1, #4
    2380:	430b      	orrs	r3, r1
    2382:	6013      	str	r3, [r2, #0]
    2384:	e7ee      	b.n	2364 <system_clock_source_dfll_set_config+0x58>
    2386:	46c0      	nop			; (mov r8, r8)
    2388:	200000c0 	.word	0x200000c0
    238c:	03ff0000 	.word	0x03ff0000
    2390:	00000424 	.word	0x00000424

00002394 <system_clock_source_enable>:
    2394:	2808      	cmp	r0, #8
    2396:	d803      	bhi.n	23a0 <system_clock_source_enable+0xc>
    2398:	0080      	lsls	r0, r0, #2
    239a:	4b2d      	ldr	r3, [pc, #180]	; (2450 <system_clock_source_enable+0xbc>)
    239c:	581b      	ldr	r3, [r3, r0]
    239e:	469f      	mov	pc, r3
    23a0:	2017      	movs	r0, #23
    23a2:	e054      	b.n	244e <system_clock_source_enable+0xba>
    23a4:	4a2b      	ldr	r2, [pc, #172]	; (2454 <system_clock_source_enable+0xc0>)
    23a6:	7d13      	ldrb	r3, [r2, #20]
    23a8:	2102      	movs	r1, #2
    23aa:	430b      	orrs	r3, r1
    23ac:	7513      	strb	r3, [r2, #20]
    23ae:	2000      	movs	r0, #0
    23b0:	e04d      	b.n	244e <system_clock_source_enable+0xba>
    23b2:	4a29      	ldr	r2, [pc, #164]	; (2458 <system_clock_source_enable+0xc4>)
    23b4:	6993      	ldr	r3, [r2, #24]
    23b6:	2102      	movs	r1, #2
    23b8:	430b      	orrs	r3, r1
    23ba:	6193      	str	r3, [r2, #24]
    23bc:	2000      	movs	r0, #0
    23be:	e046      	b.n	244e <system_clock_source_enable+0xba>
    23c0:	4a24      	ldr	r2, [pc, #144]	; (2454 <system_clock_source_enable+0xc0>)
    23c2:	8a13      	ldrh	r3, [r2, #16]
    23c4:	2102      	movs	r1, #2
    23c6:	430b      	orrs	r3, r1
    23c8:	8213      	strh	r3, [r2, #16]
    23ca:	2000      	movs	r0, #0
    23cc:	e03f      	b.n	244e <system_clock_source_enable+0xba>
    23ce:	4a22      	ldr	r2, [pc, #136]	; (2458 <system_clock_source_enable+0xc4>)
    23d0:	6953      	ldr	r3, [r2, #20]
    23d2:	2102      	movs	r1, #2
    23d4:	430b      	orrs	r3, r1
    23d6:	6153      	str	r3, [r2, #20]
    23d8:	2000      	movs	r0, #0
    23da:	e038      	b.n	244e <system_clock_source_enable+0xba>
    23dc:	491f      	ldr	r1, [pc, #124]	; (245c <system_clock_source_enable+0xc8>)
    23de:	680b      	ldr	r3, [r1, #0]
    23e0:	2202      	movs	r2, #2
    23e2:	4313      	orrs	r3, r2
    23e4:	600b      	str	r3, [r1, #0]
    23e6:	4b1b      	ldr	r3, [pc, #108]	; (2454 <system_clock_source_enable+0xc0>)
    23e8:	831a      	strh	r2, [r3, #24]
    23ea:	0019      	movs	r1, r3
    23ec:	32fe      	adds	r2, #254	; 0xfe
    23ee:	68cb      	ldr	r3, [r1, #12]
    23f0:	4213      	tst	r3, r2
    23f2:	d0fc      	beq.n	23ee <system_clock_source_enable+0x5a>
    23f4:	4b19      	ldr	r3, [pc, #100]	; (245c <system_clock_source_enable+0xc8>)
    23f6:	689a      	ldr	r2, [r3, #8]
    23f8:	4b16      	ldr	r3, [pc, #88]	; (2454 <system_clock_source_enable+0xc0>)
    23fa:	621a      	str	r2, [r3, #32]
    23fc:	2202      	movs	r2, #2
    23fe:	831a      	strh	r2, [r3, #24]
    2400:	0019      	movs	r1, r3
    2402:	32fe      	adds	r2, #254	; 0xfe
    2404:	68cb      	ldr	r3, [r1, #12]
    2406:	4213      	tst	r3, r2
    2408:	d0fc      	beq.n	2404 <system_clock_source_enable+0x70>
    240a:	4b14      	ldr	r3, [pc, #80]	; (245c <system_clock_source_enable+0xc8>)
    240c:	685a      	ldr	r2, [r3, #4]
    240e:	4b11      	ldr	r3, [pc, #68]	; (2454 <system_clock_source_enable+0xc0>)
    2410:	61da      	str	r2, [r3, #28]
    2412:	2200      	movs	r2, #0
    2414:	831a      	strh	r2, [r3, #24]
    2416:	0019      	movs	r1, r3
    2418:	3201      	adds	r2, #1
    241a:	32ff      	adds	r2, #255	; 0xff
    241c:	68cb      	ldr	r3, [r1, #12]
    241e:	4213      	tst	r3, r2
    2420:	d0fc      	beq.n	241c <system_clock_source_enable+0x88>
    2422:	4b0e      	ldr	r3, [pc, #56]	; (245c <system_clock_source_enable+0xc8>)
    2424:	681b      	ldr	r3, [r3, #0]
    2426:	b29b      	uxth	r3, r3
    2428:	4a0a      	ldr	r2, [pc, #40]	; (2454 <system_clock_source_enable+0xc0>)
    242a:	8313      	strh	r3, [r2, #24]
    242c:	2000      	movs	r0, #0
    242e:	e00e      	b.n	244e <system_clock_source_enable+0xba>
    2430:	4908      	ldr	r1, [pc, #32]	; (2454 <system_clock_source_enable+0xc0>)
    2432:	2228      	movs	r2, #40	; 0x28
    2434:	5c8b      	ldrb	r3, [r1, r2]
    2436:	2002      	movs	r0, #2
    2438:	4303      	orrs	r3, r0
    243a:	548b      	strb	r3, [r1, r2]
    243c:	0008      	movs	r0, r1
    243e:	2138      	movs	r1, #56	; 0x38
    2440:	3a26      	subs	r2, #38	; 0x26
    2442:	5c43      	ldrb	r3, [r0, r1]
    2444:	4213      	tst	r3, r2
    2446:	d1fc      	bne.n	2442 <system_clock_source_enable+0xae>
    2448:	2000      	movs	r0, #0
    244a:	e000      	b.n	244e <system_clock_source_enable+0xba>
    244c:	2000      	movs	r0, #0
    244e:	4770      	bx	lr
    2450:	00004078 	.word	0x00004078
    2454:	40000c00 	.word	0x40000c00
    2458:	40001000 	.word	0x40001000
    245c:	200000c0 	.word	0x200000c0

00002460 <system_clock_source_disable>:
    2460:	2808      	cmp	r0, #8
    2462:	d832      	bhi.n	24ca <system_clock_source_disable+0x6a>
    2464:	0080      	lsls	r0, r0, #2
    2466:	4b1a      	ldr	r3, [pc, #104]	; (24d0 <system_clock_source_disable+0x70>)
    2468:	581b      	ldr	r3, [r3, r0]
    246a:	469f      	mov	pc, r3
    246c:	4a19      	ldr	r2, [pc, #100]	; (24d4 <system_clock_source_disable+0x74>)
    246e:	7d13      	ldrb	r3, [r2, #20]
    2470:	2102      	movs	r1, #2
    2472:	438b      	bics	r3, r1
    2474:	7513      	strb	r3, [r2, #20]
    2476:	2000      	movs	r0, #0
    2478:	4770      	bx	lr
    247a:	4a17      	ldr	r2, [pc, #92]	; (24d8 <system_clock_source_disable+0x78>)
    247c:	6993      	ldr	r3, [r2, #24]
    247e:	2102      	movs	r1, #2
    2480:	438b      	bics	r3, r1
    2482:	6193      	str	r3, [r2, #24]
    2484:	2000      	movs	r0, #0
    2486:	e7f7      	b.n	2478 <system_clock_source_disable+0x18>
    2488:	4a12      	ldr	r2, [pc, #72]	; (24d4 <system_clock_source_disable+0x74>)
    248a:	8a13      	ldrh	r3, [r2, #16]
    248c:	2102      	movs	r1, #2
    248e:	438b      	bics	r3, r1
    2490:	8213      	strh	r3, [r2, #16]
    2492:	2000      	movs	r0, #0
    2494:	e7f0      	b.n	2478 <system_clock_source_disable+0x18>
    2496:	4a10      	ldr	r2, [pc, #64]	; (24d8 <system_clock_source_disable+0x78>)
    2498:	6953      	ldr	r3, [r2, #20]
    249a:	2102      	movs	r1, #2
    249c:	438b      	bics	r3, r1
    249e:	6153      	str	r3, [r2, #20]
    24a0:	2000      	movs	r0, #0
    24a2:	e7e9      	b.n	2478 <system_clock_source_disable+0x18>
    24a4:	4b0d      	ldr	r3, [pc, #52]	; (24dc <system_clock_source_disable+0x7c>)
    24a6:	681a      	ldr	r2, [r3, #0]
    24a8:	2102      	movs	r1, #2
    24aa:	438a      	bics	r2, r1
    24ac:	601a      	str	r2, [r3, #0]
    24ae:	681b      	ldr	r3, [r3, #0]
    24b0:	b29b      	uxth	r3, r3
    24b2:	4a08      	ldr	r2, [pc, #32]	; (24d4 <system_clock_source_disable+0x74>)
    24b4:	8313      	strh	r3, [r2, #24]
    24b6:	2000      	movs	r0, #0
    24b8:	e7de      	b.n	2478 <system_clock_source_disable+0x18>
    24ba:	4906      	ldr	r1, [pc, #24]	; (24d4 <system_clock_source_disable+0x74>)
    24bc:	2228      	movs	r2, #40	; 0x28
    24be:	5c8b      	ldrb	r3, [r1, r2]
    24c0:	2002      	movs	r0, #2
    24c2:	4383      	bics	r3, r0
    24c4:	548b      	strb	r3, [r1, r2]
    24c6:	2000      	movs	r0, #0
    24c8:	e7d6      	b.n	2478 <system_clock_source_disable+0x18>
    24ca:	2017      	movs	r0, #23
    24cc:	e7d4      	b.n	2478 <system_clock_source_disable+0x18>
    24ce:	46c0      	nop			; (mov r8, r8)
    24d0:	0000409c 	.word	0x0000409c
    24d4:	40000c00 	.word	0x40000c00
    24d8:	40001000 	.word	0x40001000
    24dc:	200000c0 	.word	0x200000c0

000024e0 <system_clock_init>:
    24e0:	b530      	push	{r4, r5, lr}
    24e2:	b08d      	sub	sp, #52	; 0x34
    24e4:	2280      	movs	r2, #128	; 0x80
    24e6:	0052      	lsls	r2, r2, #1
    24e8:	4b6a      	ldr	r3, [pc, #424]	; (2694 <system_clock_init+0x1b4>)
    24ea:	609a      	str	r2, [r3, #8]
    24ec:	3afd      	subs	r2, #253	; 0xfd
    24ee:	4b6a      	ldr	r3, [pc, #424]	; (2698 <system_clock_init+0x1b8>)
    24f0:	609a      	str	r2, [r3, #8]
    24f2:	4a6a      	ldr	r2, [pc, #424]	; (269c <system_clock_init+0x1bc>)
    24f4:	6853      	ldr	r3, [r2, #4]
    24f6:	211e      	movs	r1, #30
    24f8:	438b      	bics	r3, r1
    24fa:	391a      	subs	r1, #26
    24fc:	430b      	orrs	r3, r1
    24fe:	6053      	str	r3, [r2, #4]
    2500:	2380      	movs	r3, #128	; 0x80
    2502:	05db      	lsls	r3, r3, #23
    2504:	789b      	ldrb	r3, [r3, #2]
    2506:	2b02      	cmp	r3, #2
    2508:	d009      	beq.n	251e <system_clock_init+0x3e>
    250a:	2380      	movs	r3, #128	; 0x80
    250c:	05db      	lsls	r3, r3, #23
    250e:	2201      	movs	r2, #1
    2510:	719a      	strb	r2, [r3, #6]
    2512:	3201      	adds	r2, #1
    2514:	709a      	strb	r2, [r3, #2]
    2516:	001a      	movs	r2, r3
    2518:	7993      	ldrb	r3, [r2, #6]
    251a:	2b00      	cmp	r3, #0
    251c:	d0fc      	beq.n	2518 <system_clock_init+0x38>
    251e:	a809      	add	r0, sp, #36	; 0x24
    2520:	2300      	movs	r3, #0
    2522:	7003      	strb	r3, [r0, #0]
    2524:	2280      	movs	r2, #128	; 0x80
    2526:	0212      	lsls	r2, r2, #8
    2528:	6042      	str	r2, [r0, #4]
    252a:	7083      	strb	r3, [r0, #2]
    252c:	2201      	movs	r2, #1
    252e:	70c2      	strb	r2, [r0, #3]
    2530:	7203      	strb	r3, [r0, #8]
    2532:	7283      	strb	r3, [r0, #10]
    2534:	7042      	strb	r2, [r0, #1]
    2536:	7243      	strb	r3, [r0, #9]
    2538:	4b59      	ldr	r3, [pc, #356]	; (26a0 <system_clock_init+0x1c0>)
    253a:	4798      	blx	r3
    253c:	2005      	movs	r0, #5
    253e:	4b59      	ldr	r3, [pc, #356]	; (26a4 <system_clock_init+0x1c4>)
    2540:	4798      	blx	r3
    2542:	4959      	ldr	r1, [pc, #356]	; (26a8 <system_clock_init+0x1c8>)
    2544:	2201      	movs	r2, #1
    2546:	68cb      	ldr	r3, [r1, #12]
    2548:	421a      	tst	r2, r3
    254a:	d0fc      	beq.n	2546 <system_clock_init+0x66>
    254c:	4a56      	ldr	r2, [pc, #344]	; (26a8 <system_clock_init+0x1c8>)
    254e:	6953      	ldr	r3, [r2, #20]
    2550:	2180      	movs	r1, #128	; 0x80
    2552:	430b      	orrs	r3, r1
    2554:	6153      	str	r3, [r2, #20]
    2556:	a901      	add	r1, sp, #4
    2558:	2301      	movs	r3, #1
    255a:	604b      	str	r3, [r1, #4]
    255c:	2400      	movs	r4, #0
    255e:	704c      	strb	r4, [r1, #1]
    2560:	720c      	strb	r4, [r1, #8]
    2562:	724c      	strb	r4, [r1, #9]
    2564:	2503      	movs	r5, #3
    2566:	700d      	strb	r5, [r1, #0]
    2568:	2000      	movs	r0, #0
    256a:	4b50      	ldr	r3, [pc, #320]	; (26ac <system_clock_init+0x1cc>)
    256c:	4798      	blx	r3
    256e:	2006      	movs	r0, #6
    2570:	4b4f      	ldr	r3, [pc, #316]	; (26b0 <system_clock_init+0x1d0>)
    2572:	4798      	blx	r3
    2574:	466b      	mov	r3, sp
    2576:	705c      	strb	r4, [r3, #1]
    2578:	701d      	strb	r5, [r3, #0]
    257a:	709c      	strb	r4, [r3, #2]
    257c:	4668      	mov	r0, sp
    257e:	4b4d      	ldr	r3, [pc, #308]	; (26b4 <system_clock_init+0x1d4>)
    2580:	4798      	blx	r3
    2582:	2006      	movs	r0, #6
    2584:	4b47      	ldr	r3, [pc, #284]	; (26a4 <system_clock_init+0x1c4>)
    2586:	4798      	blx	r3
    2588:	4942      	ldr	r1, [pc, #264]	; (2694 <system_clock_init+0x1b4>)
    258a:	2210      	movs	r2, #16
    258c:	68cb      	ldr	r3, [r1, #12]
    258e:	421a      	tst	r2, r3
    2590:	d0fc      	beq.n	258c <system_clock_init+0xac>
    2592:	a901      	add	r1, sp, #4
    2594:	2301      	movs	r3, #1
    2596:	604b      	str	r3, [r1, #4]
    2598:	2400      	movs	r4, #0
    259a:	704c      	strb	r4, [r1, #1]
    259c:	3305      	adds	r3, #5
    259e:	700b      	strb	r3, [r1, #0]
    25a0:	720c      	strb	r4, [r1, #8]
    25a2:	724c      	strb	r4, [r1, #9]
    25a4:	2000      	movs	r0, #0
    25a6:	4b41      	ldr	r3, [pc, #260]	; (26ac <system_clock_init+0x1cc>)
    25a8:	4798      	blx	r3
    25aa:	4a3a      	ldr	r2, [pc, #232]	; (2694 <system_clock_init+0x1b4>)
    25ac:	7d13      	ldrb	r3, [r2, #20]
    25ae:	2180      	movs	r1, #128	; 0x80
    25b0:	430b      	orrs	r3, r1
    25b2:	7513      	strb	r3, [r2, #20]
    25b4:	ab04      	add	r3, sp, #16
    25b6:	2200      	movs	r2, #0
    25b8:	809c      	strh	r4, [r3, #4]
    25ba:	80dc      	strh	r4, [r3, #6]
    25bc:	721a      	strb	r2, [r3, #8]
    25be:	725a      	strb	r2, [r3, #9]
    25c0:	709a      	strb	r2, [r3, #2]
    25c2:	3941      	subs	r1, #65	; 0x41
    25c4:	8199      	strh	r1, [r3, #12]
    25c6:	393b      	subs	r1, #59	; 0x3b
    25c8:	7019      	strb	r1, [r3, #0]
    25ca:	705a      	strb	r2, [r3, #1]
    25cc:	4b3a      	ldr	r3, [pc, #232]	; (26b8 <system_clock_init+0x1d8>)
    25ce:	681b      	ldr	r3, [r3, #0]
    25d0:	0e9b      	lsrs	r3, r3, #26
    25d2:	2b3f      	cmp	r3, #63	; 0x3f
    25d4:	d05b      	beq.n	268e <system_clock_init+0x1ae>
    25d6:	a804      	add	r0, sp, #16
    25d8:	7283      	strb	r3, [r0, #10]
    25da:	4b38      	ldr	r3, [pc, #224]	; (26bc <system_clock_init+0x1dc>)
    25dc:	8243      	strh	r3, [r0, #18]
    25de:	2307      	movs	r3, #7
    25e0:	7383      	strb	r3, [r0, #14]
    25e2:	3338      	adds	r3, #56	; 0x38
    25e4:	8203      	strh	r3, [r0, #16]
    25e6:	4b36      	ldr	r3, [pc, #216]	; (26c0 <system_clock_init+0x1e0>)
    25e8:	4798      	blx	r3
    25ea:	4b36      	ldr	r3, [pc, #216]	; (26c4 <system_clock_init+0x1e4>)
    25ec:	4798      	blx	r3
    25ee:	ac01      	add	r4, sp, #4
    25f0:	2501      	movs	r5, #1
    25f2:	9502      	str	r5, [sp, #8]
    25f4:	2300      	movs	r3, #0
    25f6:	7063      	strb	r3, [r4, #1]
    25f8:	7223      	strb	r3, [r4, #8]
    25fa:	7263      	strb	r3, [r4, #9]
    25fc:	3305      	adds	r3, #5
    25fe:	7023      	strb	r3, [r4, #0]
    2600:	0021      	movs	r1, r4
    2602:	2001      	movs	r0, #1
    2604:	4b29      	ldr	r3, [pc, #164]	; (26ac <system_clock_init+0x1cc>)
    2606:	4798      	blx	r3
    2608:	2001      	movs	r0, #1
    260a:	4b2f      	ldr	r3, [pc, #188]	; (26c8 <system_clock_init+0x1e8>)
    260c:	4798      	blx	r3
    260e:	7025      	strb	r5, [r4, #0]
    2610:	0021      	movs	r1, r4
    2612:	2000      	movs	r0, #0
    2614:	4b2d      	ldr	r3, [pc, #180]	; (26cc <system_clock_init+0x1ec>)
    2616:	4798      	blx	r3
    2618:	2000      	movs	r0, #0
    261a:	4b2d      	ldr	r3, [pc, #180]	; (26d0 <system_clock_init+0x1f0>)
    261c:	4798      	blx	r3
    261e:	2007      	movs	r0, #7
    2620:	4b20      	ldr	r3, [pc, #128]	; (26a4 <system_clock_init+0x1c4>)
    2622:	4798      	blx	r3
    2624:	491b      	ldr	r1, [pc, #108]	; (2694 <system_clock_init+0x1b4>)
    2626:	22d0      	movs	r2, #208	; 0xd0
    2628:	0112      	lsls	r2, r2, #4
    262a:	68cb      	ldr	r3, [r1, #12]
    262c:	4013      	ands	r3, r2
    262e:	4293      	cmp	r3, r2
    2630:	d1fb      	bne.n	262a <system_clock_init+0x14a>
    2632:	4c28      	ldr	r4, [pc, #160]	; (26d4 <system_clock_init+0x1f4>)
    2634:	2301      	movs	r3, #1
    2636:	71a3      	strb	r3, [r4, #6]
    2638:	7163      	strb	r3, [r4, #5]
    263a:	7123      	strb	r3, [r4, #4]
    263c:	a901      	add	r1, sp, #4
    263e:	604b      	str	r3, [r1, #4]
    2640:	2300      	movs	r3, #0
    2642:	704b      	strb	r3, [r1, #1]
    2644:	720b      	strb	r3, [r1, #8]
    2646:	724b      	strb	r3, [r1, #9]
    2648:	3307      	adds	r3, #7
    264a:	700b      	strb	r3, [r1, #0]
    264c:	2000      	movs	r0, #0
    264e:	4b17      	ldr	r3, [pc, #92]	; (26ac <system_clock_init+0x1cc>)
    2650:	4798      	blx	r3
    2652:	2000      	movs	r0, #0
    2654:	4b1c      	ldr	r3, [pc, #112]	; (26c8 <system_clock_init+0x1e8>)
    2656:	4798      	blx	r3
    2658:	2000      	movs	r0, #0
    265a:	4b1f      	ldr	r3, [pc, #124]	; (26d8 <system_clock_init+0x1f8>)
    265c:	4798      	blx	r3
    265e:	7921      	ldrb	r1, [r4, #4]
    2660:	b2c9      	uxtb	r1, r1
    2662:	4b1e      	ldr	r3, [pc, #120]	; (26dc <system_clock_init+0x1fc>)
    2664:	4798      	blx	r3
    2666:	4b1e      	ldr	r3, [pc, #120]	; (26e0 <system_clock_init+0x200>)
    2668:	4298      	cmp	r0, r3
    266a:	d80e      	bhi.n	268a <system_clock_init+0x1aa>
    266c:	2380      	movs	r3, #128	; 0x80
    266e:	05db      	lsls	r3, r3, #23
    2670:	789b      	ldrb	r3, [r3, #2]
    2672:	2b00      	cmp	r3, #0
    2674:	d009      	beq.n	268a <system_clock_init+0x1aa>
    2676:	2380      	movs	r3, #128	; 0x80
    2678:	05db      	lsls	r3, r3, #23
    267a:	2201      	movs	r2, #1
    267c:	719a      	strb	r2, [r3, #6]
    267e:	2200      	movs	r2, #0
    2680:	709a      	strb	r2, [r3, #2]
    2682:	001a      	movs	r2, r3
    2684:	7993      	ldrb	r3, [r2, #6]
    2686:	2b00      	cmp	r3, #0
    2688:	d0fc      	beq.n	2684 <system_clock_init+0x1a4>
    268a:	b00d      	add	sp, #52	; 0x34
    268c:	bd30      	pop	{r4, r5, pc}
    268e:	3b20      	subs	r3, #32
    2690:	e7a1      	b.n	25d6 <system_clock_init+0xf6>
    2692:	46c0      	nop			; (mov r8, r8)
    2694:	40000c00 	.word	0x40000c00
    2698:	40001400 	.word	0x40001400
    269c:	41004000 	.word	0x41004000
    26a0:	00002271 	.word	0x00002271
    26a4:	00002395 	.word	0x00002395
    26a8:	40001000 	.word	0x40001000
    26ac:	00002709 	.word	0x00002709
    26b0:	00002461 	.word	0x00002461
    26b4:	0000223d 	.word	0x0000223d
    26b8:	00806020 	.word	0x00806020
    26bc:	000005b9 	.word	0x000005b9
    26c0:	0000230d 	.word	0x0000230d
    26c4:	000026e5 	.word	0x000026e5
    26c8:	000027b5 	.word	0x000027b5
    26cc:	000028d1 	.word	0x000028d1
    26d0:	00002861 	.word	0x00002861
    26d4:	40000400 	.word	0x40000400
    26d8:	000027f5 	.word	0x000027f5
    26dc:	00003251 	.word	0x00003251
    26e0:	00b71b00 	.word	0x00b71b00

000026e4 <system_gclk_init>:
    26e4:	4a06      	ldr	r2, [pc, #24]	; (2700 <system_gclk_init+0x1c>)
    26e6:	6953      	ldr	r3, [r2, #20]
    26e8:	2140      	movs	r1, #64	; 0x40
    26ea:	430b      	orrs	r3, r1
    26ec:	6153      	str	r3, [r2, #20]
    26ee:	2201      	movs	r2, #1
    26f0:	4b04      	ldr	r3, [pc, #16]	; (2704 <system_gclk_init+0x20>)
    26f2:	701a      	strb	r2, [r3, #0]
    26f4:	0019      	movs	r1, r3
    26f6:	780b      	ldrb	r3, [r1, #0]
    26f8:	4213      	tst	r3, r2
    26fa:	d1fc      	bne.n	26f6 <system_gclk_init+0x12>
    26fc:	4770      	bx	lr
    26fe:	46c0      	nop			; (mov r8, r8)
    2700:	40000400 	.word	0x40000400
    2704:	40001800 	.word	0x40001800

00002708 <system_gclk_gen_set_config>:
    2708:	b570      	push	{r4, r5, r6, lr}
    270a:	0004      	movs	r4, r0
    270c:	780d      	ldrb	r5, [r1, #0]
    270e:	784b      	ldrb	r3, [r1, #1]
    2710:	2b00      	cmp	r3, #0
    2712:	d002      	beq.n	271a <system_gclk_gen_set_config+0x12>
    2714:	2380      	movs	r3, #128	; 0x80
    2716:	00db      	lsls	r3, r3, #3
    2718:	431d      	orrs	r5, r3
    271a:	7a4b      	ldrb	r3, [r1, #9]
    271c:	2b00      	cmp	r3, #0
    271e:	d002      	beq.n	2726 <system_gclk_gen_set_config+0x1e>
    2720:	2380      	movs	r3, #128	; 0x80
    2722:	011b      	lsls	r3, r3, #4
    2724:	431d      	orrs	r5, r3
    2726:	6848      	ldr	r0, [r1, #4]
    2728:	2801      	cmp	r0, #1
    272a:	d90f      	bls.n	274c <system_gclk_gen_set_config+0x44>
    272c:	1e43      	subs	r3, r0, #1
    272e:	4218      	tst	r0, r3
    2730:	d131      	bne.n	2796 <system_gclk_gen_set_config+0x8e>
    2732:	2802      	cmp	r0, #2
    2734:	d92d      	bls.n	2792 <system_gclk_gen_set_config+0x8a>
    2736:	2302      	movs	r3, #2
    2738:	2200      	movs	r2, #0
    273a:	3201      	adds	r2, #1
    273c:	005b      	lsls	r3, r3, #1
    273e:	4298      	cmp	r0, r3
    2740:	d8fb      	bhi.n	273a <system_gclk_gen_set_config+0x32>
    2742:	2380      	movs	r3, #128	; 0x80
    2744:	015b      	lsls	r3, r3, #5
    2746:	431d      	orrs	r5, r3
    2748:	0412      	lsls	r2, r2, #16
    274a:	4315      	orrs	r5, r2
    274c:	7a0b      	ldrb	r3, [r1, #8]
    274e:	2b00      	cmp	r3, #0
    2750:	d002      	beq.n	2758 <system_gclk_gen_set_config+0x50>
    2752:	2380      	movs	r3, #128	; 0x80
    2754:	019b      	lsls	r3, r3, #6
    2756:	431d      	orrs	r5, r3
    2758:	2604      	movs	r6, #4
    275a:	40a6      	lsls	r6, r4
    275c:	4911      	ldr	r1, [pc, #68]	; (27a4 <system_gclk_gen_set_config+0x9c>)
    275e:	4a12      	ldr	r2, [pc, #72]	; (27a8 <system_gclk_gen_set_config+0xa0>)
    2760:	684b      	ldr	r3, [r1, #4]
    2762:	4013      	ands	r3, r2
    2764:	421e      	tst	r6, r3
    2766:	d1fb      	bne.n	2760 <system_gclk_gen_set_config+0x58>
    2768:	4b10      	ldr	r3, [pc, #64]	; (27ac <system_gclk_gen_set_config+0xa4>)
    276a:	4798      	blx	r3
    276c:	00a4      	lsls	r4, r4, #2
    276e:	4b0d      	ldr	r3, [pc, #52]	; (27a4 <system_gclk_gen_set_config+0x9c>)
    2770:	469c      	mov	ip, r3
    2772:	4464      	add	r4, ip
    2774:	6a22      	ldr	r2, [r4, #32]
    2776:	2380      	movs	r3, #128	; 0x80
    2778:	005b      	lsls	r3, r3, #1
    277a:	401a      	ands	r2, r3
    277c:	432a      	orrs	r2, r5
    277e:	6222      	str	r2, [r4, #32]
    2780:	4661      	mov	r1, ip
    2782:	4a09      	ldr	r2, [pc, #36]	; (27a8 <system_gclk_gen_set_config+0xa0>)
    2784:	684b      	ldr	r3, [r1, #4]
    2786:	4013      	ands	r3, r2
    2788:	421e      	tst	r6, r3
    278a:	d1fb      	bne.n	2784 <system_gclk_gen_set_config+0x7c>
    278c:	4b08      	ldr	r3, [pc, #32]	; (27b0 <system_gclk_gen_set_config+0xa8>)
    278e:	4798      	blx	r3
    2790:	bd70      	pop	{r4, r5, r6, pc}
    2792:	2200      	movs	r2, #0
    2794:	e7d5      	b.n	2742 <system_gclk_gen_set_config+0x3a>
    2796:	0400      	lsls	r0, r0, #16
    2798:	2380      	movs	r3, #128	; 0x80
    279a:	009b      	lsls	r3, r3, #2
    279c:	4318      	orrs	r0, r3
    279e:	4305      	orrs	r5, r0
    27a0:	e7d4      	b.n	274c <system_gclk_gen_set_config+0x44>
    27a2:	46c0      	nop			; (mov r8, r8)
    27a4:	40001800 	.word	0x40001800
    27a8:	000007fc 	.word	0x000007fc
    27ac:	00001089 	.word	0x00001089
    27b0:	000010c9 	.word	0x000010c9

000027b4 <system_gclk_gen_enable>:
    27b4:	b510      	push	{r4, lr}
    27b6:	0004      	movs	r4, r0
    27b8:	2204      	movs	r2, #4
    27ba:	4082      	lsls	r2, r0
    27bc:	4809      	ldr	r0, [pc, #36]	; (27e4 <system_gclk_gen_enable+0x30>)
    27be:	490a      	ldr	r1, [pc, #40]	; (27e8 <system_gclk_gen_enable+0x34>)
    27c0:	6843      	ldr	r3, [r0, #4]
    27c2:	400b      	ands	r3, r1
    27c4:	421a      	tst	r2, r3
    27c6:	d1fb      	bne.n	27c0 <system_gclk_gen_enable+0xc>
    27c8:	4b08      	ldr	r3, [pc, #32]	; (27ec <system_gclk_gen_enable+0x38>)
    27ca:	4798      	blx	r3
    27cc:	00a4      	lsls	r4, r4, #2
    27ce:	4b05      	ldr	r3, [pc, #20]	; (27e4 <system_gclk_gen_enable+0x30>)
    27d0:	469c      	mov	ip, r3
    27d2:	4464      	add	r4, ip
    27d4:	6a22      	ldr	r2, [r4, #32]
    27d6:	2380      	movs	r3, #128	; 0x80
    27d8:	005b      	lsls	r3, r3, #1
    27da:	4313      	orrs	r3, r2
    27dc:	6223      	str	r3, [r4, #32]
    27de:	4b04      	ldr	r3, [pc, #16]	; (27f0 <system_gclk_gen_enable+0x3c>)
    27e0:	4798      	blx	r3
    27e2:	bd10      	pop	{r4, pc}
    27e4:	40001800 	.word	0x40001800
    27e8:	000007fc 	.word	0x000007fc
    27ec:	00001089 	.word	0x00001089
    27f0:	000010c9 	.word	0x000010c9

000027f4 <system_gclk_gen_get_hz>:
    27f4:	b5f8      	push	{r3, r4, r5, r6, r7, lr}
    27f6:	0004      	movs	r4, r0
    27f8:	2204      	movs	r2, #4
    27fa:	4082      	lsls	r2, r0
    27fc:	4812      	ldr	r0, [pc, #72]	; (2848 <system_gclk_gen_get_hz+0x54>)
    27fe:	4913      	ldr	r1, [pc, #76]	; (284c <system_gclk_gen_get_hz+0x58>)
    2800:	6843      	ldr	r3, [r0, #4]
    2802:	400b      	ands	r3, r1
    2804:	421a      	tst	r2, r3
    2806:	d1fb      	bne.n	2800 <system_gclk_gen_get_hz+0xc>
    2808:	4b11      	ldr	r3, [pc, #68]	; (2850 <system_gclk_gen_get_hz+0x5c>)
    280a:	4798      	blx	r3
    280c:	4f0e      	ldr	r7, [pc, #56]	; (2848 <system_gclk_gen_get_hz+0x54>)
    280e:	3408      	adds	r4, #8
    2810:	00a4      	lsls	r4, r4, #2
    2812:	59e0      	ldr	r0, [r4, r7]
    2814:	0700      	lsls	r0, r0, #28
    2816:	0f00      	lsrs	r0, r0, #28
    2818:	4b0e      	ldr	r3, [pc, #56]	; (2854 <system_gclk_gen_get_hz+0x60>)
    281a:	4798      	blx	r3
    281c:	0006      	movs	r6, r0
    281e:	59e5      	ldr	r5, [r4, r7]
    2820:	04ed      	lsls	r5, r5, #19
    2822:	0fed      	lsrs	r5, r5, #31
    2824:	59e4      	ldr	r4, [r4, r7]
    2826:	0c24      	lsrs	r4, r4, #16
    2828:	4b0b      	ldr	r3, [pc, #44]	; (2858 <system_gclk_gen_get_hz+0x64>)
    282a:	4798      	blx	r3
    282c:	2d00      	cmp	r5, #0
    282e:	d107      	bne.n	2840 <system_gclk_gen_get_hz+0x4c>
    2830:	2c01      	cmp	r4, #1
    2832:	d907      	bls.n	2844 <system_gclk_gen_get_hz+0x50>
    2834:	0021      	movs	r1, r4
    2836:	0030      	movs	r0, r6
    2838:	4b08      	ldr	r3, [pc, #32]	; (285c <system_gclk_gen_get_hz+0x68>)
    283a:	4798      	blx	r3
    283c:	0006      	movs	r6, r0
    283e:	e001      	b.n	2844 <system_gclk_gen_get_hz+0x50>
    2840:	3401      	adds	r4, #1
    2842:	40e6      	lsrs	r6, r4
    2844:	0030      	movs	r0, r6
    2846:	bdf8      	pop	{r3, r4, r5, r6, r7, pc}
    2848:	40001800 	.word	0x40001800
    284c:	000007fc 	.word	0x000007fc
    2850:	00001089 	.word	0x00001089
    2854:	000021a5 	.word	0x000021a5
    2858:	000010c9 	.word	0x000010c9
    285c:	00003251 	.word	0x00003251

00002860 <system_gclk_chan_enable>:
    2860:	b510      	push	{r4, lr}
    2862:	0004      	movs	r4, r0
    2864:	4b09      	ldr	r3, [pc, #36]	; (288c <system_gclk_chan_enable+0x2c>)
    2866:	4798      	blx	r3
    2868:	00a0      	lsls	r0, r4, #2
    286a:	4b09      	ldr	r3, [pc, #36]	; (2890 <system_gclk_chan_enable+0x30>)
    286c:	469c      	mov	ip, r3
    286e:	4460      	add	r0, ip
    2870:	2280      	movs	r2, #128	; 0x80
    2872:	5883      	ldr	r3, [r0, r2]
    2874:	2140      	movs	r1, #64	; 0x40
    2876:	430b      	orrs	r3, r1
    2878:	5083      	str	r3, [r0, r2]
    287a:	3140      	adds	r1, #64	; 0x40
    287c:	3a40      	subs	r2, #64	; 0x40
    287e:	5843      	ldr	r3, [r0, r1]
    2880:	421a      	tst	r2, r3
    2882:	d0fc      	beq.n	287e <system_gclk_chan_enable+0x1e>
    2884:	4b03      	ldr	r3, [pc, #12]	; (2894 <system_gclk_chan_enable+0x34>)
    2886:	4798      	blx	r3
    2888:	bd10      	pop	{r4, pc}
    288a:	46c0      	nop			; (mov r8, r8)
    288c:	00001089 	.word	0x00001089
    2890:	40001800 	.word	0x40001800
    2894:	000010c9 	.word	0x000010c9

00002898 <system_gclk_chan_disable>:
    2898:	b510      	push	{r4, lr}
    289a:	0004      	movs	r4, r0
    289c:	4b09      	ldr	r3, [pc, #36]	; (28c4 <system_gclk_chan_disable+0x2c>)
    289e:	4798      	blx	r3
    28a0:	00a0      	lsls	r0, r4, #2
    28a2:	4b09      	ldr	r3, [pc, #36]	; (28c8 <system_gclk_chan_disable+0x30>)
    28a4:	469c      	mov	ip, r3
    28a6:	4460      	add	r0, ip
    28a8:	2280      	movs	r2, #128	; 0x80
    28aa:	5883      	ldr	r3, [r0, r2]
    28ac:	2140      	movs	r1, #64	; 0x40
    28ae:	438b      	bics	r3, r1
    28b0:	5083      	str	r3, [r0, r2]
    28b2:	3140      	adds	r1, #64	; 0x40
    28b4:	3a40      	subs	r2, #64	; 0x40
    28b6:	5843      	ldr	r3, [r0, r1]
    28b8:	421a      	tst	r2, r3
    28ba:	d1fc      	bne.n	28b6 <system_gclk_chan_disable+0x1e>
    28bc:	4b03      	ldr	r3, [pc, #12]	; (28cc <system_gclk_chan_disable+0x34>)
    28be:	4798      	blx	r3
    28c0:	bd10      	pop	{r4, pc}
    28c2:	46c0      	nop			; (mov r8, r8)
    28c4:	00001089 	.word	0x00001089
    28c8:	40001800 	.word	0x40001800
    28cc:	000010c9 	.word	0x000010c9

000028d0 <system_gclk_chan_set_config>:
    28d0:	b570      	push	{r4, r5, r6, lr}
    28d2:	0004      	movs	r4, r0
    28d4:	000d      	movs	r5, r1
    28d6:	4b05      	ldr	r3, [pc, #20]	; (28ec <system_gclk_chan_set_config+0x1c>)
    28d8:	4798      	blx	r3
    28da:	782a      	ldrb	r2, [r5, #0]
    28dc:	230f      	movs	r3, #15
    28de:	4013      	ands	r3, r2
    28e0:	3420      	adds	r4, #32
    28e2:	00a4      	lsls	r4, r4, #2
    28e4:	4a02      	ldr	r2, [pc, #8]	; (28f0 <system_gclk_chan_set_config+0x20>)
    28e6:	50a3      	str	r3, [r4, r2]
    28e8:	bd70      	pop	{r4, r5, r6, pc}
    28ea:	46c0      	nop			; (mov r8, r8)
    28ec:	00002899 	.word	0x00002899
    28f0:	40001800 	.word	0x40001800

000028f4 <system_gclk_chan_get_hz>:
    28f4:	b510      	push	{r4, lr}
    28f6:	0004      	movs	r4, r0
    28f8:	4b06      	ldr	r3, [pc, #24]	; (2914 <system_gclk_chan_get_hz+0x20>)
    28fa:	4798      	blx	r3
    28fc:	3420      	adds	r4, #32
    28fe:	00a4      	lsls	r4, r4, #2
    2900:	4b05      	ldr	r3, [pc, #20]	; (2918 <system_gclk_chan_get_hz+0x24>)
    2902:	58e4      	ldr	r4, [r4, r3]
    2904:	0724      	lsls	r4, r4, #28
    2906:	0f24      	lsrs	r4, r4, #28
    2908:	4b04      	ldr	r3, [pc, #16]	; (291c <system_gclk_chan_get_hz+0x28>)
    290a:	4798      	blx	r3
    290c:	0020      	movs	r0, r4
    290e:	4b04      	ldr	r3, [pc, #16]	; (2920 <system_gclk_chan_get_hz+0x2c>)
    2910:	4798      	blx	r3
    2912:	bd10      	pop	{r4, pc}
    2914:	00001089 	.word	0x00001089
    2918:	40001800 	.word	0x40001800
    291c:	000010c9 	.word	0x000010c9
    2920:	000027f5 	.word	0x000027f5

00002924 <_system_pinmux_config>:
    2924:	b530      	push	{r4, r5, lr}
    2926:	78d3      	ldrb	r3, [r2, #3]
    2928:	2b00      	cmp	r3, #0
    292a:	d135      	bne.n	2998 <_system_pinmux_config+0x74>
    292c:	7813      	ldrb	r3, [r2, #0]
    292e:	2b80      	cmp	r3, #128	; 0x80
    2930:	d029      	beq.n	2986 <_system_pinmux_config+0x62>
    2932:	061b      	lsls	r3, r3, #24
    2934:	2480      	movs	r4, #128	; 0x80
    2936:	0264      	lsls	r4, r4, #9
    2938:	4323      	orrs	r3, r4
    293a:	7854      	ldrb	r4, [r2, #1]
    293c:	2502      	movs	r5, #2
    293e:	43ac      	bics	r4, r5
    2940:	d106      	bne.n	2950 <_system_pinmux_config+0x2c>
    2942:	7894      	ldrb	r4, [r2, #2]
    2944:	2c00      	cmp	r4, #0
    2946:	d120      	bne.n	298a <_system_pinmux_config+0x66>
    2948:	2480      	movs	r4, #128	; 0x80
    294a:	02a4      	lsls	r4, r4, #10
    294c:	4323      	orrs	r3, r4
    294e:	6041      	str	r1, [r0, #4]
    2950:	7854      	ldrb	r4, [r2, #1]
    2952:	3c01      	subs	r4, #1
    2954:	2c01      	cmp	r4, #1
    2956:	d91c      	bls.n	2992 <_system_pinmux_config+0x6e>
    2958:	040d      	lsls	r5, r1, #16
    295a:	0c2d      	lsrs	r5, r5, #16
    295c:	24a0      	movs	r4, #160	; 0xa0
    295e:	05e4      	lsls	r4, r4, #23
    2960:	432c      	orrs	r4, r5
    2962:	431c      	orrs	r4, r3
    2964:	6284      	str	r4, [r0, #40]	; 0x28
    2966:	0c0d      	lsrs	r5, r1, #16
    2968:	24d0      	movs	r4, #208	; 0xd0
    296a:	0624      	lsls	r4, r4, #24
    296c:	432c      	orrs	r4, r5
    296e:	431c      	orrs	r4, r3
    2970:	6284      	str	r4, [r0, #40]	; 0x28
    2972:	78d4      	ldrb	r4, [r2, #3]
    2974:	2c00      	cmp	r4, #0
    2976:	d122      	bne.n	29be <_system_pinmux_config+0x9a>
    2978:	035b      	lsls	r3, r3, #13
    297a:	d51c      	bpl.n	29b6 <_system_pinmux_config+0x92>
    297c:	7893      	ldrb	r3, [r2, #2]
    297e:	2b01      	cmp	r3, #1
    2980:	d01e      	beq.n	29c0 <_system_pinmux_config+0x9c>
    2982:	6141      	str	r1, [r0, #20]
    2984:	e017      	b.n	29b6 <_system_pinmux_config+0x92>
    2986:	2300      	movs	r3, #0
    2988:	e7d7      	b.n	293a <_system_pinmux_config+0x16>
    298a:	24c0      	movs	r4, #192	; 0xc0
    298c:	02e4      	lsls	r4, r4, #11
    298e:	4323      	orrs	r3, r4
    2990:	e7dd      	b.n	294e <_system_pinmux_config+0x2a>
    2992:	4c0d      	ldr	r4, [pc, #52]	; (29c8 <_system_pinmux_config+0xa4>)
    2994:	4023      	ands	r3, r4
    2996:	e7df      	b.n	2958 <_system_pinmux_config+0x34>
    2998:	6041      	str	r1, [r0, #4]
    299a:	040c      	lsls	r4, r1, #16
    299c:	0c24      	lsrs	r4, r4, #16
    299e:	23a0      	movs	r3, #160	; 0xa0
    29a0:	05db      	lsls	r3, r3, #23
    29a2:	4323      	orrs	r3, r4
    29a4:	6283      	str	r3, [r0, #40]	; 0x28
    29a6:	0c0c      	lsrs	r4, r1, #16
    29a8:	23d0      	movs	r3, #208	; 0xd0
    29aa:	061b      	lsls	r3, r3, #24
    29ac:	4323      	orrs	r3, r4
    29ae:	6283      	str	r3, [r0, #40]	; 0x28
    29b0:	78d3      	ldrb	r3, [r2, #3]
    29b2:	2b00      	cmp	r3, #0
    29b4:	d103      	bne.n	29be <_system_pinmux_config+0x9a>
    29b6:	7853      	ldrb	r3, [r2, #1]
    29b8:	3b01      	subs	r3, #1
    29ba:	2b01      	cmp	r3, #1
    29bc:	d902      	bls.n	29c4 <_system_pinmux_config+0xa0>
    29be:	bd30      	pop	{r4, r5, pc}
    29c0:	6181      	str	r1, [r0, #24]
    29c2:	e7f8      	b.n	29b6 <_system_pinmux_config+0x92>
    29c4:	6081      	str	r1, [r0, #8]
    29c6:	e7fa      	b.n	29be <_system_pinmux_config+0x9a>
    29c8:	fffbffff 	.word	0xfffbffff

000029cc <system_pinmux_pin_set_config>:
    29cc:	b510      	push	{r4, lr}
    29ce:	000a      	movs	r2, r1
    29d0:	09c1      	lsrs	r1, r0, #7
    29d2:	2300      	movs	r3, #0
    29d4:	2900      	cmp	r1, #0
    29d6:	d104      	bne.n	29e2 <system_pinmux_pin_set_config+0x16>
    29d8:	0943      	lsrs	r3, r0, #5
    29da:	01db      	lsls	r3, r3, #7
    29dc:	4905      	ldr	r1, [pc, #20]	; (29f4 <system_pinmux_pin_set_config+0x28>)
    29de:	468c      	mov	ip, r1
    29e0:	4463      	add	r3, ip
    29e2:	241f      	movs	r4, #31
    29e4:	4020      	ands	r0, r4
    29e6:	2101      	movs	r1, #1
    29e8:	4081      	lsls	r1, r0
    29ea:	0018      	movs	r0, r3
    29ec:	4b02      	ldr	r3, [pc, #8]	; (29f8 <system_pinmux_pin_set_config+0x2c>)
    29ee:	4798      	blx	r3
    29f0:	bd10      	pop	{r4, pc}
    29f2:	46c0      	nop			; (mov r8, r8)
    29f4:	40002800 	.word	0x40002800
    29f8:	00002925 	.word	0x00002925

000029fc <_system_dummy_init>:
    29fc:	4770      	bx	lr
	...

00002a00 <system_init>:
    2a00:	b510      	push	{r4, lr}
    2a02:	4b05      	ldr	r3, [pc, #20]	; (2a18 <system_init+0x18>)
    2a04:	4798      	blx	r3
    2a06:	4b05      	ldr	r3, [pc, #20]	; (2a1c <system_init+0x1c>)
    2a08:	4798      	blx	r3
    2a0a:	4b05      	ldr	r3, [pc, #20]	; (2a20 <system_init+0x20>)
    2a0c:	4798      	blx	r3
    2a0e:	4b05      	ldr	r3, [pc, #20]	; (2a24 <system_init+0x24>)
    2a10:	4798      	blx	r3
    2a12:	4b05      	ldr	r3, [pc, #20]	; (2a28 <system_init+0x28>)
    2a14:	4798      	blx	r3
    2a16:	bd10      	pop	{r4, pc}
    2a18:	000024e1 	.word	0x000024e1
    2a1c:	00000c75 	.word	0x00000c75
    2a20:	000029fd 	.word	0x000029fd
    2a24:	0000116d 	.word	0x0000116d
    2a28:	000029fd 	.word	0x000029fd

00002a2c <_read>:
    2a2c:	b5f0      	push	{r4, r5, r6, r7, lr}
    2a2e:	46c6      	mov	lr, r8
    2a30:	b500      	push	{lr}
    2a32:	000c      	movs	r4, r1
    2a34:	4690      	mov	r8, r2
    2a36:	2800      	cmp	r0, #0
    2a38:	d10f      	bne.n	2a5a <_read+0x2e>
    2a3a:	2a00      	cmp	r2, #0
    2a3c:	dd11      	ble.n	2a62 <_read+0x36>
    2a3e:	188f      	adds	r7, r1, r2
    2a40:	4e09      	ldr	r6, [pc, #36]	; (2a68 <_read+0x3c>)
    2a42:	4d0a      	ldr	r5, [pc, #40]	; (2a6c <_read+0x40>)
    2a44:	6830      	ldr	r0, [r6, #0]
    2a46:	0021      	movs	r1, r4
    2a48:	682b      	ldr	r3, [r5, #0]
    2a4a:	4798      	blx	r3
    2a4c:	3401      	adds	r4, #1
    2a4e:	42bc      	cmp	r4, r7
    2a50:	d1f8      	bne.n	2a44 <_read+0x18>
    2a52:	4640      	mov	r0, r8
    2a54:	bc04      	pop	{r2}
    2a56:	4690      	mov	r8, r2
    2a58:	bdf0      	pop	{r4, r5, r6, r7, pc}
    2a5a:	2301      	movs	r3, #1
    2a5c:	425b      	negs	r3, r3
    2a5e:	4698      	mov	r8, r3
    2a60:	e7f7      	b.n	2a52 <_read+0x26>
    2a62:	4680      	mov	r8, r0
    2a64:	e7f5      	b.n	2a52 <_read+0x26>
    2a66:	46c0      	nop			; (mov r8, r8)
    2a68:	20000610 	.word	0x20000610
    2a6c:	20000608 	.word	0x20000608

00002a70 <_write>:
    2a70:	b5f0      	push	{r4, r5, r6, r7, lr}
    2a72:	46c6      	mov	lr, r8
    2a74:	b500      	push	{lr}
    2a76:	000e      	movs	r6, r1
    2a78:	0015      	movs	r5, r2
    2a7a:	3801      	subs	r0, #1
    2a7c:	2802      	cmp	r0, #2
    2a7e:	d810      	bhi.n	2aa2 <_write+0x32>
    2a80:	2a00      	cmp	r2, #0
    2a82:	d011      	beq.n	2aa8 <_write+0x38>
    2a84:	2400      	movs	r4, #0
    2a86:	4b0c      	ldr	r3, [pc, #48]	; (2ab8 <_write+0x48>)
    2a88:	4698      	mov	r8, r3
    2a8a:	4f0c      	ldr	r7, [pc, #48]	; (2abc <_write+0x4c>)
    2a8c:	4643      	mov	r3, r8
    2a8e:	6818      	ldr	r0, [r3, #0]
    2a90:	5d31      	ldrb	r1, [r6, r4]
    2a92:	683b      	ldr	r3, [r7, #0]
    2a94:	4798      	blx	r3
    2a96:	2800      	cmp	r0, #0
    2a98:	db08      	blt.n	2aac <_write+0x3c>
    2a9a:	3401      	adds	r4, #1
    2a9c:	42a5      	cmp	r5, r4
    2a9e:	d1f5      	bne.n	2a8c <_write+0x1c>
    2aa0:	e006      	b.n	2ab0 <_write+0x40>
    2aa2:	2401      	movs	r4, #1
    2aa4:	4264      	negs	r4, r4
    2aa6:	e003      	b.n	2ab0 <_write+0x40>
    2aa8:	0014      	movs	r4, r2
    2aaa:	e001      	b.n	2ab0 <_write+0x40>
    2aac:	2401      	movs	r4, #1
    2aae:	4264      	negs	r4, r4
    2ab0:	0020      	movs	r0, r4
    2ab2:	bc04      	pop	{r2}
    2ab4:	4690      	mov	r8, r2
    2ab6:	bdf0      	pop	{r4, r5, r6, r7, pc}
    2ab8:	20000610 	.word	0x20000610
    2abc:	2000060c 	.word	0x2000060c

00002ac0 <_sbrk>:
    2ac0:	0003      	movs	r3, r0
    2ac2:	4a06      	ldr	r2, [pc, #24]	; (2adc <_sbrk+0x1c>)
    2ac4:	6812      	ldr	r2, [r2, #0]
    2ac6:	2a00      	cmp	r2, #0
    2ac8:	d004      	beq.n	2ad4 <_sbrk+0x14>
    2aca:	4a04      	ldr	r2, [pc, #16]	; (2adc <_sbrk+0x1c>)
    2acc:	6810      	ldr	r0, [r2, #0]
    2ace:	18c3      	adds	r3, r0, r3
    2ad0:	6013      	str	r3, [r2, #0]
    2ad2:	4770      	bx	lr
    2ad4:	4902      	ldr	r1, [pc, #8]	; (2ae0 <_sbrk+0x20>)
    2ad6:	4a01      	ldr	r2, [pc, #4]	; (2adc <_sbrk+0x1c>)
    2ad8:	6011      	str	r1, [r2, #0]
    2ada:	e7f6      	b.n	2aca <_sbrk+0xa>
    2adc:	200000d8 	.word	0x200000d8
    2ae0:	20002618 	.word	0x20002618

00002ae4 <_close>:
    2ae4:	2001      	movs	r0, #1
    2ae6:	4240      	negs	r0, r0
    2ae8:	4770      	bx	lr

00002aea <_fstat>:
    2aea:	2380      	movs	r3, #128	; 0x80
    2aec:	019b      	lsls	r3, r3, #6
    2aee:	604b      	str	r3, [r1, #4]
    2af0:	2000      	movs	r0, #0
    2af2:	4770      	bx	lr

00002af4 <_isatty>:
    2af4:	2001      	movs	r0, #1
    2af6:	4770      	bx	lr

00002af8 <_lseek>:
    2af8:	2000      	movs	r0, #0
    2afa:	4770      	bx	lr

00002afc <usart_rx_complete_handler>:
	}
}

static void usart_rx_complete_handler(struct usart_module *const module)
{
	usart_pkt_received = 1;
    2afc:	2201      	movs	r2, #1
    2afe:	4b0a      	ldr	r3, [pc, #40]	; (2b28 <usart_rx_complete_handler+0x2c>)
    2b00:	701a      	strb	r2, [r3, #0]
	usart_pkt = (uint8_t *)(module->rx_buffer_ptr - schedule_rx_length);
    2b02:	4b0a      	ldr	r3, [pc, #40]	; (2b2c <usart_rx_complete_handler+0x30>)
    2b04:	881a      	ldrh	r2, [r3, #0]
    2b06:	6a43      	ldr	r3, [r0, #36]	; 0x24
    2b08:	1a9b      	subs	r3, r3, r2
    2b0a:	4a09      	ldr	r2, [pc, #36]	; (2b30 <usart_rx_complete_handler+0x34>)
    2b0c:	6013      	str	r3, [r2, #0]
	if (change_state) {
    2b0e:	4b09      	ldr	r3, [pc, #36]	; (2b34 <usart_rx_complete_handler+0x38>)
    2b10:	781b      	ldrb	r3, [r3, #0]
    2b12:	2b00      	cmp	r3, #0
    2b14:	d006      	beq.n	2b24 <usart_rx_complete_handler+0x28>
		usart_prot_handler_status = new_state;
    2b16:	4b08      	ldr	r3, [pc, #32]	; (2b38 <usart_rx_complete_handler+0x3c>)
    2b18:	781a      	ldrb	r2, [r3, #0]
    2b1a:	4b08      	ldr	r3, [pc, #32]	; (2b3c <usart_rx_complete_handler+0x40>)
    2b1c:	701a      	strb	r2, [r3, #0]
		change_state = 0;
    2b1e:	2200      	movs	r2, #0
    2b20:	4b04      	ldr	r3, [pc, #16]	; (2b34 <usart_rx_complete_handler+0x38>)
    2b22:	701a      	strb	r2, [r3, #0]
	}
}
    2b24:	4770      	bx	lr
    2b26:	46c0      	nop			; (mov r8, r8)
    2b28:	2000054c 	.word	0x2000054c
    2b2c:	2000011c 	.word	0x2000011c
    2b30:	20000548 	.word	0x20000548
    2b34:	20000110 	.word	0x20000110
    2b38:	20000111 	.word	0x20000111
    2b3c:	2000054d 	.word	0x2000054d

00002b40 <usart_tx_complete_handler>:
{
    2b40:	b510      	push	{r4, lr}
	if (schedule_rx) {
    2b42:	4b10      	ldr	r3, [pc, #64]	; (2b84 <usart_tx_complete_handler+0x44>)
    2b44:	781b      	ldrb	r3, [r3, #0]
    2b46:	2b00      	cmp	r3, #0
    2b48:	d00a      	beq.n	2b60 <usart_tx_complete_handler+0x20>
		if (schedule_rx_length == 1) {
    2b4a:	4b0f      	ldr	r3, [pc, #60]	; (2b88 <usart_tx_complete_handler+0x48>)
    2b4c:	881a      	ldrh	r2, [r3, #0]
    2b4e:	2a01      	cmp	r2, #1
    2b50:	d012      	beq.n	2b78 <usart_tx_complete_handler+0x38>
			usart_read_buffer_job((struct usart_module *)module, (uint8_t *)schedule_rx_buffer, schedule_rx_length);
    2b52:	4b0e      	ldr	r3, [pc, #56]	; (2b8c <usart_tx_complete_handler+0x4c>)
    2b54:	6819      	ldr	r1, [r3, #0]
    2b56:	4b0e      	ldr	r3, [pc, #56]	; (2b90 <usart_tx_complete_handler+0x50>)
    2b58:	4798      	blx	r3
		schedule_rx = 0;
    2b5a:	2200      	movs	r2, #0
    2b5c:	4b09      	ldr	r3, [pc, #36]	; (2b84 <usart_tx_complete_handler+0x44>)
    2b5e:	701a      	strb	r2, [r3, #0]
	if (change_state) {
    2b60:	4b0c      	ldr	r3, [pc, #48]	; (2b94 <usart_tx_complete_handler+0x54>)
    2b62:	781b      	ldrb	r3, [r3, #0]
    2b64:	2b00      	cmp	r3, #0
    2b66:	d006      	beq.n	2b76 <usart_tx_complete_handler+0x36>
		usart_prot_handler_status = new_state;
    2b68:	4b0b      	ldr	r3, [pc, #44]	; (2b98 <usart_tx_complete_handler+0x58>)
    2b6a:	781a      	ldrb	r2, [r3, #0]
    2b6c:	4b0b      	ldr	r3, [pc, #44]	; (2b9c <usart_tx_complete_handler+0x5c>)
    2b6e:	701a      	strb	r2, [r3, #0]
		change_state = 0;
    2b70:	2200      	movs	r2, #0
    2b72:	4b08      	ldr	r3, [pc, #32]	; (2b94 <usart_tx_complete_handler+0x54>)
    2b74:	701a      	strb	r2, [r3, #0]
}
    2b76:	bd10      	pop	{r4, pc}
			usart_read_job((struct usart_module *)module, schedule_rx_buffer);
    2b78:	4b04      	ldr	r3, [pc, #16]	; (2b8c <usart_tx_complete_handler+0x4c>)
    2b7a:	6819      	ldr	r1, [r3, #0]
    2b7c:	4b08      	ldr	r3, [pc, #32]	; (2ba0 <usart_tx_complete_handler+0x60>)
    2b7e:	4798      	blx	r3
    2b80:	e7eb      	b.n	2b5a <usart_tx_complete_handler+0x1a>
    2b82:	46c0      	nop			; (mov r8, r8)
    2b84:	20000114 	.word	0x20000114
    2b88:	2000011c 	.word	0x2000011c
    2b8c:	20000118 	.word	0x20000118
    2b90:	00001ff1 	.word	0x00001ff1
    2b94:	20000110 	.word	0x20000110
    2b98:	20000111 	.word	0x20000111
    2b9c:	2000054d 	.word	0x2000054d
    2ba0:	00001fc1 	.word	0x00001fc1

00002ba4 <usart_serial_getchar>:
 * \param[out]    c       Destination for the read character.
 */
static inline void usart_serial_getchar(
		struct usart_module *const module,
		uint8_t *c)
{
    2ba4:	b570      	push	{r4, r5, r6, lr}
    2ba6:	b082      	sub	sp, #8
    2ba8:	0005      	movs	r5, r0
    2baa:	000e      	movs	r6, r1
	uint16_t temp = 0;
    2bac:	2200      	movs	r2, #0
    2bae:	466b      	mov	r3, sp
    2bb0:	80da      	strh	r2, [r3, #6]

	while(STATUS_OK != usart_read_wait(module, &temp));
    2bb2:	4c06      	ldr	r4, [pc, #24]	; (2bcc <usart_serial_getchar+0x28>)
    2bb4:	466b      	mov	r3, sp
    2bb6:	1d99      	adds	r1, r3, #6
    2bb8:	0028      	movs	r0, r5
    2bba:	47a0      	blx	r4
    2bbc:	2800      	cmp	r0, #0
    2bbe:	d1f9      	bne.n	2bb4 <usart_serial_getchar+0x10>

	*c = temp;
    2bc0:	466b      	mov	r3, sp
    2bc2:	3306      	adds	r3, #6
    2bc4:	881b      	ldrh	r3, [r3, #0]
    2bc6:	7033      	strb	r3, [r6, #0]
}
    2bc8:	b002      	add	sp, #8
    2bca:	bd70      	pop	{r4, r5, r6, pc}
    2bcc:	00001e91 	.word	0x00001e91

00002bd0 <usart_serial_putchar>:
{
    2bd0:	b570      	push	{r4, r5, r6, lr}
    2bd2:	0005      	movs	r5, r0
	while(STATUS_OK !=usart_write_wait(module, c));
    2bd4:	b28c      	uxth	r4, r1
    2bd6:	4e03      	ldr	r6, [pc, #12]	; (2be4 <usart_serial_putchar+0x14>)
    2bd8:	0021      	movs	r1, r4
    2bda:	0028      	movs	r0, r5
    2bdc:	47b0      	blx	r6
    2bde:	2800      	cmp	r0, #0
    2be0:	d1fa      	bne.n	2bd8 <usart_serial_putchar+0x8>
}
    2be2:	bd70      	pop	{r4, r5, r6, pc}
    2be4:	00001e65 	.word	0x00001e65

00002be8 <configure_console>:
 * \brief Configure UART console.
 *
 * \param baud UART baudrate to use.
 */
static void configure_console(uint32_t baud)
{
    2be8:	b5f0      	push	{r4, r5, r6, r7, lr}
    2bea:	b091      	sub	sp, #68	; 0x44
{
	/* Sanity check arguments */
	Assert(config);

	/* Set default config in the config struct */
	config->data_order       = USART_DATAORDER_LSB;
    2bec:	2380      	movs	r3, #128	; 0x80
    2bee:	05db      	lsls	r3, r3, #23
    2bf0:	9300      	str	r3, [sp, #0]
	config->transfer_mode    = USART_TRANSFER_ASYNCHRONOUSLY;
    2bf2:	2300      	movs	r3, #0
    2bf4:	9301      	str	r3, [sp, #4]
	config->parity           = USART_PARITY_NONE;
    2bf6:	22ff      	movs	r2, #255	; 0xff
    2bf8:	4669      	mov	r1, sp
    2bfa:	810a      	strh	r2, [r1, #8]
	config->stopbits         = USART_STOPBITS_1;
    2bfc:	2200      	movs	r2, #0
    2bfe:	728b      	strb	r3, [r1, #10]
	config->character_size   = USART_CHARACTER_SIZE_8BIT;
    2c00:	72cb      	strb	r3, [r1, #11]
	config->baudrate         = 9600;
	config->receiver_enable  = true;
    2c02:	2501      	movs	r5, #1
    2c04:	2124      	movs	r1, #36	; 0x24
    2c06:	466c      	mov	r4, sp
    2c08:	5465      	strb	r5, [r4, r1]
	config->transmitter_enable = true;
    2c0a:	3101      	adds	r1, #1
    2c0c:	5465      	strb	r5, [r4, r1]
	config->clock_polarity_inverted = false;
    2c0e:	3101      	adds	r1, #1
    2c10:	5463      	strb	r3, [r4, r1]
	config->use_external_clock = false;
    2c12:	3101      	adds	r1, #1
    2c14:	5463      	strb	r3, [r4, r1]
	config->ext_clock_freq   = 0;
    2c16:	930a      	str	r3, [sp, #40]	; 0x28
	config->mux_setting      = USART_RX_1_TX_2_XCK_3;
	config->run_in_standby   = false;
    2c18:	3105      	adds	r1, #5
    2c1a:	5463      	strb	r3, [r4, r1]
	config->generator_source = GCLK_GENERATOR_0;
    2c1c:	3101      	adds	r1, #1
    2c1e:	5463      	strb	r3, [r4, r1]
	config->pinmux_pad0      = PINMUX_DEFAULT;
	config->pinmux_pad1      = PINMUX_DEFAULT;
	config->pinmux_pad2      = PINMUX_DEFAULT;
	config->pinmux_pad3      = PINMUX_DEFAULT;
#ifdef FEATURE_USART_OVER_SAMPLE
	config->sample_adjustment     = USART_SAMPLE_ADJUSTMENT_7_8_9;
    2c20:	9305      	str	r3, [sp, #20]
	config->sample_rate           = USART_SAMPLE_RATE_16X_ARITHMETIC;
    2c22:	8223      	strh	r3, [r4, #16]
#endif
#ifdef FEATURE_USART_LIN_SLAVE
	config->lin_slave_enable      = false;
    2c24:	76e3      	strb	r3, [r4, #27]
	config->lin_header_delay = LIN_MASTER_HEADER_DELAY_0;
	config->lin_break_length = LIN_MASTER_BREAK_LENGTH_13_BIT;
#endif

#ifdef FEATURE_USART_IMMEDIATE_BUFFER_OVERFLOW_NOTIFICATION
	config->immediate_buffer_overflow_notification  = false;
    2c26:	7622      	strb	r2, [r4, #24]
#endif
#ifdef FEATURE_USART_START_FRAME_DECTION
	config->start_frame_detection_enable            = false;
    2c28:	7722      	strb	r2, [r4, #28]
#endif
#ifdef FEATURE_USART_IRDA
	config->encoding_format_enable                  = false;
    2c2a:	7662      	strb	r2, [r4, #25]
	config->receive_pulse_length                    = 19;
    2c2c:	2313      	movs	r3, #19
    2c2e:	76a3      	strb	r3, [r4, #26]
	config->iso7816_config.inhibit_nack             = ISO7816_INHIBIT_NACK_DISABLE;
	config->iso7816_config.successive_recv_nack     = ISO7816_SUCCESSIVE_RECV_NACK_DISABLE;
	config->iso7816_config.max_iterations           = 7;
#endif
#ifdef FEATURE_USART_COLLISION_DECTION
	config->collision_detection_enable              = false;
    2c30:	7762      	strb	r2, [r4, #29]
	struct usart_config usart_conf;

	usart_get_config_defaults(&usart_conf);
	usart_conf.mux_setting = CONF_STDIO_MUX_SETTING;
    2c32:	2380      	movs	r3, #128	; 0x80
    2c34:	035b      	lsls	r3, r3, #13
    2c36:	9303      	str	r3, [sp, #12]
	usart_conf.pinmux_pad0 = CONF_STDIO_PINMUX_PAD0;
    2c38:	4b24      	ldr	r3, [pc, #144]	; (2ccc <configure_console+0xe4>)
    2c3a:	930c      	str	r3, [sp, #48]	; 0x30
	usart_conf.pinmux_pad1 = CONF_STDIO_PINMUX_PAD1;
    2c3c:	4b24      	ldr	r3, [pc, #144]	; (2cd0 <configure_console+0xe8>)
    2c3e:	930d      	str	r3, [sp, #52]	; 0x34
	usart_conf.pinmux_pad2 = CONF_STDIO_PINMUX_PAD2;
    2c40:	2301      	movs	r3, #1
    2c42:	425b      	negs	r3, r3
    2c44:	930e      	str	r3, [sp, #56]	; 0x38
	usart_conf.pinmux_pad3 = CONF_STDIO_PINMUX_PAD3;
    2c46:	930f      	str	r3, [sp, #60]	; 0x3c
	usart_conf.baudrate    = baud;
    2c48:	9008      	str	r0, [sp, #32]
static inline void stdio_serial_init(
		struct usart_module *const module,
		usart_inst_t const hw,
		const struct usart_config *const config)
{
	stdio_base = (void *)module;
    2c4a:	4c22      	ldr	r4, [pc, #136]	; (2cd4 <configure_console+0xec>)
    2c4c:	4b22      	ldr	r3, [pc, #136]	; (2cd8 <configure_console+0xf0>)
    2c4e:	601c      	str	r4, [r3, #0]
	ptr_put = (int (*)(void volatile*,char))&usart_serial_putchar;
    2c50:	4a22      	ldr	r2, [pc, #136]	; (2cdc <configure_console+0xf4>)
    2c52:	4b23      	ldr	r3, [pc, #140]	; (2ce0 <configure_console+0xf8>)
    2c54:	601a      	str	r2, [r3, #0]
	ptr_get = (void (*)(void volatile*,char*))&usart_serial_getchar;
    2c56:	4a23      	ldr	r2, [pc, #140]	; (2ce4 <configure_console+0xfc>)
    2c58:	4b23      	ldr	r3, [pc, #140]	; (2ce8 <configure_console+0x100>)
    2c5a:	601a      	str	r2, [r3, #0]
	if (usart_init(module, hw, config) == STATUS_OK) {
    2c5c:	466a      	mov	r2, sp
    2c5e:	2184      	movs	r1, #132	; 0x84
    2c60:	05c9      	lsls	r1, r1, #23
    2c62:	0020      	movs	r0, r4
    2c64:	4b21      	ldr	r3, [pc, #132]	; (2cec <configure_console+0x104>)
    2c66:	4798      	blx	r3

	usart_serial_init(module, hw, config);
# if defined(__GNUC__)
	// Specify that stdout and stdin should not be buffered.
	setbuf(stdout, NULL);
    2c68:	4f21      	ldr	r7, [pc, #132]	; (2cf0 <configure_console+0x108>)
    2c6a:	683b      	ldr	r3, [r7, #0]
    2c6c:	6898      	ldr	r0, [r3, #8]
    2c6e:	2100      	movs	r1, #0
    2c70:	4e20      	ldr	r6, [pc, #128]	; (2cf4 <configure_console+0x10c>)
    2c72:	47b0      	blx	r6
	setbuf(stdin, NULL);
    2c74:	683b      	ldr	r3, [r7, #0]
    2c76:	6858      	ldr	r0, [r3, #4]
    2c78:	2100      	movs	r1, #0
    2c7a:	47b0      	blx	r6
	stdio_serial_init(&cdc_uart_module, CONF_STDIO_USART_MODULE, &usart_conf);
	usart_register_callback(&cdc_uart_module, usart_rx_complete_handler, USART_CALLBACK_BUFFER_RECEIVED);
    2c7c:	2201      	movs	r2, #1
    2c7e:	491e      	ldr	r1, [pc, #120]	; (2cf8 <configure_console+0x110>)
    2c80:	0020      	movs	r0, r4
    2c82:	4e1e      	ldr	r6, [pc, #120]	; (2cfc <configure_console+0x114>)
    2c84:	47b0      	blx	r6
	usart_register_callback(&cdc_uart_module, usart_tx_complete_handler, USART_CALLBACK_BUFFER_TRANSMITTED);
    2c86:	2200      	movs	r2, #0
    2c88:	491d      	ldr	r1, [pc, #116]	; (2d00 <configure_console+0x118>)
    2c8a:	0020      	movs	r0, r4
    2c8c:	47b0      	blx	r6
{
	/* Sanity check arguments */
	Assert(module);

	/* Enable callback */
	module->callback_enable_mask |= (1 << callback_type);
    2c8e:	2231      	movs	r2, #49	; 0x31
    2c90:	5ca3      	ldrb	r3, [r4, r2]
    2c92:	2103      	movs	r1, #3
    2c94:	430b      	orrs	r3, r1
    2c96:	54a3      	strb	r3, [r4, r2]
	/* Sanity check arguments */
	Assert(module);
	Assert(module->hw);

	/* Get a pointer to the hardware module instance */
	SercomUsart *const usart_hw = &(module->hw->USART);
    2c98:	6826      	ldr	r6, [r4, #0]

#if USART_CALLBACK_MODE == true
	/* Enable Global interrupt for module */
	system_interrupt_enable(_sercom_get_interrupt_vector(module->hw));
    2c9a:	0030      	movs	r0, r6
    2c9c:	4b19      	ldr	r3, [pc, #100]	; (2d04 <configure_console+0x11c>)
    2c9e:	4798      	blx	r3
 * \param[in] vector Interrupt vector to enable
 */
static inline void system_interrupt_enable(
		const enum system_interrupt_vector vector)
{
	NVIC->ISER[0] = (uint32_t)(1 << ((uint32_t)vector & 0x0000001f));
    2ca0:	231f      	movs	r3, #31
    2ca2:	4018      	ands	r0, r3
    2ca4:	4085      	lsls	r5, r0
    2ca6:	4b18      	ldr	r3, [pc, #96]	; (2d08 <configure_console+0x120>)
    2ca8:	601d      	str	r5, [r3, #0]
	SercomUsart *const usart_hw = &(module->hw->USART);
    2caa:	6822      	ldr	r2, [r4, #0]
	return (usart_hw->SYNCBUSY.reg);
    2cac:	69d3      	ldr	r3, [r2, #28]
	while (usart_is_syncing(module)) {
    2cae:	2b00      	cmp	r3, #0
    2cb0:	d1fc      	bne.n	2cac <configure_console+0xc4>

	/* Wait until synchronization is complete */
	_usart_wait_for_sync(module);

	/* Enable USART module */
	usart_hw->CTRLA.reg |= SERCOM_USART_CTRLA_ENABLE;
    2cb2:	6833      	ldr	r3, [r6, #0]
    2cb4:	2202      	movs	r2, #2
    2cb6:	4313      	orrs	r3, r2
    2cb8:	6033      	str	r3, [r6, #0]
	usart_enable_callback(&cdc_uart_module, USART_CALLBACK_BUFFER_RECEIVED);
	usart_enable_callback(&cdc_uart_module, USART_CALLBACK_BUFFER_TRANSMITTED);
	usart_enable(&cdc_uart_module);
	schedule_rx_length = 1;
    2cba:	3a01      	subs	r2, #1
    2cbc:	4b13      	ldr	r3, [pc, #76]	; (2d0c <configure_console+0x124>)
    2cbe:	801a      	strh	r2, [r3, #0]
	usart_read_job(&cdc_uart_module, &usart_cmd_recv_buffer[0]);
    2cc0:	4913      	ldr	r1, [pc, #76]	; (2d10 <configure_console+0x128>)
    2cc2:	4804      	ldr	r0, [pc, #16]	; (2cd4 <configure_console+0xec>)
    2cc4:	4b13      	ldr	r3, [pc, #76]	; (2d14 <configure_console+0x12c>)
    2cc6:	4798      	blx	r3
}
    2cc8:	b011      	add	sp, #68	; 0x44
    2cca:	bdf0      	pop	{r4, r5, r6, r7, pc}
    2ccc:	00040003 	.word	0x00040003
    2cd0:	00050003 	.word	0x00050003
    2cd4:	200000dc 	.word	0x200000dc
    2cd8:	20000610 	.word	0x20000610
    2cdc:	00002bd1 	.word	0x00002bd1
    2ce0:	2000060c 	.word	0x2000060c
    2ce4:	00002ba5 	.word	0x00002ba5
    2ce8:	20000608 	.word	0x20000608
    2cec:	00001b01 	.word	0x00001b01
    2cf0:	2000000c 	.word	0x2000000c
    2cf4:	00003685 	.word	0x00003685
    2cf8:	00002afd 	.word	0x00002afd
    2cfc:	00001f8d 	.word	0x00001f8d
    2d00:	00002b41 	.word	0x00002b41
    2d04:	000015c1 	.word	0x000015c1
    2d08:	e000e100 	.word	0xe000e100
    2d0c:	2000011c 	.word	0x2000011c
    2d10:	20000134 	.word	0x20000134
    2d14:	00001fc1 	.word	0x00001fc1

00002d18 <main>:
 * Application entry point.
 *
 * \return program return value.
 */
int main(void)
{
    2d18:	b5f0      	push	{r4, r5, r6, r7, lr}
    2d1a:	46c6      	mov	lr, r8
    2d1c:	b500      	push	{lr}
    2d1e:	b084      	sub	sp, #16
	/* Initialize the system. */
	system_init();
    2d20:	4bc8      	ldr	r3, [pc, #800]	; (3044 <main+0x32c>)
    2d22:	4798      	blx	r3

	/* Initialize the UART console. */
	configure_console(CONF_STDIO_BAUDRATE);
    2d24:	20e1      	movs	r0, #225	; 0xe1
    2d26:	0240      	lsls	r0, r0, #9
    2d28:	4bc7      	ldr	r3, [pc, #796]	; (3048 <main+0x330>)
    2d2a:	4798      	blx	r3

	/* Initialize WINC IOs. */
	nm_bsp_init();
    2d2c:	4bc7      	ldr	r3, [pc, #796]	; (304c <main+0x334>)
    2d2e:	4798      	blx	r3
	ret = m2m_wifi_download_mode();
    2d30:	4bc7      	ldr	r3, [pc, #796]	; (3050 <main+0x338>)
    2d32:	4798      	blx	r3
	if (ret != M2M_SUCCESS) {
    2d34:	2800      	cmp	r0, #0
    2d36:	d000      	beq.n	2d3a <main+0x22>
    2d38:	e252      	b.n	31e0 <main+0x4c8>
		if (usart_pkt_received) {
    2d3a:	4dc6      	ldr	r5, [pc, #792]	; (3054 <main+0x33c>)
				usart_cmd_recv_buffer_u8[4] = 0xFF;
    2d3c:	4bc6      	ldr	r3, [pc, #792]	; (3058 <main+0x340>)
    2d3e:	4698      	mov	r8, r3
				usart_read_job(module, &usart_cmd_recv_buffer[2]);
    2d40:	3304      	adds	r3, #4
    2d42:	9301      	str	r3, [sp, #4]
    2d44:	e1d1      	b.n	30ea <main+0x3d2>
			usart_pkt_received = 0;
    2d46:	2200      	movs	r2, #0
    2d48:	4bc2      	ldr	r3, [pc, #776]	; (3054 <main+0x33c>)
    2d4a:	701a      	strb	r2, [r3, #0]
	switch (usart_prot_handler_status) {
    2d4c:	4bc3      	ldr	r3, [pc, #780]	; (305c <main+0x344>)
    2d4e:	781a      	ldrb	r2, [r3, #0]
    2d50:	2a04      	cmp	r2, #4
    2d52:	d900      	bls.n	2d56 <main+0x3e>
    2d54:	e117      	b.n	2f86 <main+0x26e>
    2d56:	0093      	lsls	r3, r2, #2
    2d58:	4ac1      	ldr	r2, [pc, #772]	; (3060 <main+0x348>)
    2d5a:	58d3      	ldr	r3, [r2, r3]
    2d5c:	469f      	mov	pc, r3
		if ((event_name == USART_PKT_RECEIVED) && (schedule_rx_length == 1)) {
    2d5e:	4bc1      	ldr	r3, [pc, #772]	; (3064 <main+0x34c>)
    2d60:	881b      	ldrh	r3, [r3, #0]
    2d62:	2b01      	cmp	r3, #1
    2d64:	d011      	beq.n	2d8a <main+0x72>
			usart_cmd_recv_buffer[0] = 0xFF;
    2d66:	4bbc      	ldr	r3, [pc, #752]	; (3058 <main+0x340>)
    2d68:	22ff      	movs	r2, #255	; 0xff
    2d6a:	801a      	strh	r2, [r3, #0]
			schedule_rx_buffer = &usart_cmd_recv_buffer[0];
    2d6c:	4abe      	ldr	r2, [pc, #760]	; (3068 <main+0x350>)
    2d6e:	6013      	str	r3, [r2, #0]
			schedule_rx_length = 1;
    2d70:	2201      	movs	r2, #1
    2d72:	4bbc      	ldr	r3, [pc, #752]	; (3064 <main+0x34c>)
    2d74:	801a      	strh	r2, [r3, #0]
			schedule_rx = 1;
    2d76:	4bbd      	ldr	r3, [pc, #756]	; (306c <main+0x354>)
    2d78:	701a      	strb	r2, [r3, #0]
			uartdata = 0xEA;
    2d7a:	ab02      	add	r3, sp, #8
    2d7c:	1d99      	adds	r1, r3, #6
    2d7e:	23ea      	movs	r3, #234	; 0xea
    2d80:	800b      	strh	r3, [r1, #0]
			usart_write_job(module, &uartdata);
    2d82:	48bb      	ldr	r0, [pc, #748]	; (3070 <main+0x358>)
    2d84:	4bbb      	ldr	r3, [pc, #748]	; (3074 <main+0x35c>)
    2d86:	4798      	blx	r3
    2d88:	e1b3      	b.n	30f2 <main+0x3da>
			if ((usart_pkt[0] == 0x12)) {
    2d8a:	4bbb      	ldr	r3, [pc, #748]	; (3078 <main+0x360>)
    2d8c:	681b      	ldr	r3, [r3, #0]
    2d8e:	781b      	ldrb	r3, [r3, #0]
    2d90:	2b12      	cmp	r3, #18
    2d92:	d00e      	beq.n	2db2 <main+0x9a>
				schedule_rx_buffer = &usart_cmd_recv_buffer[0];
    2d94:	49b0      	ldr	r1, [pc, #704]	; (3058 <main+0x340>)
    2d96:	4ab4      	ldr	r2, [pc, #720]	; (3068 <main+0x350>)
    2d98:	6011      	str	r1, [r2, #0]
				schedule_rx_length = 1;
    2d9a:	2101      	movs	r1, #1
    2d9c:	4ab1      	ldr	r2, [pc, #708]	; (3064 <main+0x34c>)
    2d9e:	8011      	strh	r1, [r2, #0]
				schedule_rx = 1;
    2da0:	4ab2      	ldr	r2, [pc, #712]	; (306c <main+0x354>)
    2da2:	7011      	strb	r1, [r2, #0]
				uartdata = usart_pkt[0];
    2da4:	aa02      	add	r2, sp, #8
    2da6:	1d91      	adds	r1, r2, #6
    2da8:	800b      	strh	r3, [r1, #0]
				usart_write_job(module, &uartdata);
    2daa:	48b1      	ldr	r0, [pc, #708]	; (3070 <main+0x358>)
    2dac:	4bb1      	ldr	r3, [pc, #708]	; (3074 <main+0x35c>)
    2dae:	4798      	blx	r3
    2db0:	e19f      	b.n	30f2 <main+0x3da>
				usart_prot_handler_status = WAIT_SYNC;
    2db2:	3b11      	subs	r3, #17
    2db4:	4aa9      	ldr	r2, [pc, #676]	; (305c <main+0x344>)
    2db6:	7013      	strb	r3, [r2, #0]
				usart_cmd_recv_buffer[0] = 0xFF;
    2db8:	4aa7      	ldr	r2, [pc, #668]	; (3058 <main+0x340>)
    2dba:	21ff      	movs	r1, #255	; 0xff
    2dbc:	8011      	strh	r1, [r2, #0]
				schedule_rx_buffer = &usart_cmd_recv_buffer[0];
    2dbe:	49aa      	ldr	r1, [pc, #680]	; (3068 <main+0x350>)
    2dc0:	600a      	str	r2, [r1, #0]
				schedule_rx_length = 1;
    2dc2:	4aa8      	ldr	r2, [pc, #672]	; (3064 <main+0x34c>)
    2dc4:	8013      	strh	r3, [r2, #0]
				schedule_rx = 1;
    2dc6:	4ba9      	ldr	r3, [pc, #676]	; (306c <main+0x354>)
    2dc8:	2201      	movs	r2, #1
    2dca:	701a      	strb	r2, [r3, #0]
				uartdata = 0x5B;
    2dcc:	ab02      	add	r3, sp, #8
    2dce:	1d99      	adds	r1, r3, #6
    2dd0:	235b      	movs	r3, #91	; 0x5b
    2dd2:	800b      	strh	r3, [r1, #0]
				usart_write_job(module, &uartdata);
    2dd4:	48a6      	ldr	r0, [pc, #664]	; (3070 <main+0x358>)
    2dd6:	4ba7      	ldr	r3, [pc, #668]	; (3074 <main+0x35c>)
    2dd8:	4798      	blx	r3
    2dda:	e18a      	b.n	30f2 <main+0x3da>
			if (usart_pkt[0] == 0xA5) {
    2ddc:	4ba6      	ldr	r3, [pc, #664]	; (3078 <main+0x360>)
    2dde:	681b      	ldr	r3, [r3, #0]
    2de0:	781b      	ldrb	r3, [r3, #0]
    2de2:	2ba5      	cmp	r3, #165	; 0xa5
    2de4:	d017      	beq.n	2e16 <main+0xfe>
			} else if (usart_pkt[0] == 0x12) {
    2de6:	2b12      	cmp	r3, #18
    2de8:	d023      	beq.n	2e32 <main+0x11a>
				if (!uart_reconfigure) {
    2dea:	4ba4      	ldr	r3, [pc, #656]	; (307c <main+0x364>)
    2dec:	781b      	ldrb	r3, [r3, #0]
    2dee:	2b00      	cmp	r3, #0
    2df0:	d131      	bne.n	2e56 <main+0x13e>
					uartdata = 0x5A;
    2df2:	ab02      	add	r3, sp, #8
    2df4:	1d99      	adds	r1, r3, #6
    2df6:	235a      	movs	r3, #90	; 0x5a
    2df8:	800b      	strh	r3, [r1, #0]
					usart_cmd_recv_buffer[0] = 0xFF;
    2dfa:	4b97      	ldr	r3, [pc, #604]	; (3058 <main+0x340>)
    2dfc:	22ff      	movs	r2, #255	; 0xff
    2dfe:	801a      	strh	r2, [r3, #0]
					schedule_rx_buffer = &usart_cmd_recv_buffer[0];
    2e00:	4a99      	ldr	r2, [pc, #612]	; (3068 <main+0x350>)
    2e02:	6013      	str	r3, [r2, #0]
					schedule_rx_length = 1;
    2e04:	2201      	movs	r2, #1
    2e06:	4b97      	ldr	r3, [pc, #604]	; (3064 <main+0x34c>)
    2e08:	801a      	strh	r2, [r3, #0]
					schedule_rx = 1;
    2e0a:	4b98      	ldr	r3, [pc, #608]	; (306c <main+0x354>)
    2e0c:	701a      	strb	r2, [r3, #0]
					usart_write_job(module, &uartdata);
    2e0e:	4898      	ldr	r0, [pc, #608]	; (3070 <main+0x358>)
    2e10:	4b98      	ldr	r3, [pc, #608]	; (3074 <main+0x35c>)
    2e12:	4798      	blx	r3
    2e14:	e16d      	b.n	30f2 <main+0x3da>
				usart_prot_handler_status = WAITING;
    2e16:	2202      	movs	r2, #2
    2e18:	4b90      	ldr	r3, [pc, #576]	; (305c <main+0x344>)
    2e1a:	701a      	strb	r2, [r3, #0]
				usart_cmd_recv_buffer_u8[4] = 0xFF;
    2e1c:	23ff      	movs	r3, #255	; 0xff
    2e1e:	4642      	mov	r2, r8
    2e20:	7113      	strb	r3, [r2, #4]
				schedule_rx_length = 1;
    2e22:	2201      	movs	r2, #1
    2e24:	4b8f      	ldr	r3, [pc, #572]	; (3064 <main+0x34c>)
    2e26:	801a      	strh	r2, [r3, #0]
				usart_read_job(module, &usart_cmd_recv_buffer[2]);
    2e28:	9901      	ldr	r1, [sp, #4]
    2e2a:	4891      	ldr	r0, [pc, #580]	; (3070 <main+0x358>)
    2e2c:	4b94      	ldr	r3, [pc, #592]	; (3080 <main+0x368>)
    2e2e:	4798      	blx	r3
    2e30:	e15f      	b.n	30f2 <main+0x3da>
				uartdata = 0x5B;
    2e32:	ab02      	add	r3, sp, #8
    2e34:	1d99      	adds	r1, r3, #6
    2e36:	235b      	movs	r3, #91	; 0x5b
    2e38:	800b      	strh	r3, [r1, #0]
				usart_cmd_recv_buffer[0] = 0xFF;
    2e3a:	4b87      	ldr	r3, [pc, #540]	; (3058 <main+0x340>)
    2e3c:	22ff      	movs	r2, #255	; 0xff
    2e3e:	801a      	strh	r2, [r3, #0]
				schedule_rx_buffer = &usart_cmd_recv_buffer[0];
    2e40:	4a89      	ldr	r2, [pc, #548]	; (3068 <main+0x350>)
    2e42:	6013      	str	r3, [r2, #0]
				schedule_rx_length = 1;
    2e44:	2201      	movs	r2, #1
    2e46:	4b87      	ldr	r3, [pc, #540]	; (3064 <main+0x34c>)
    2e48:	801a      	strh	r2, [r3, #0]
				schedule_rx = 1;
    2e4a:	4b88      	ldr	r3, [pc, #544]	; (306c <main+0x354>)
    2e4c:	701a      	strb	r2, [r3, #0]
				usart_write_job(module, &uartdata);
    2e4e:	4888      	ldr	r0, [pc, #544]	; (3070 <main+0x358>)
    2e50:	4b88      	ldr	r3, [pc, #544]	; (3074 <main+0x35c>)
    2e52:	4798      	blx	r3
    2e54:	e14d      	b.n	30f2 <main+0x3da>
					schedule_rx_length = 1;
    2e56:	2201      	movs	r2, #1
    2e58:	4b82      	ldr	r3, [pc, #520]	; (3064 <main+0x34c>)
    2e5a:	801a      	strh	r2, [r3, #0]
					usart_read_job(module, &usart_cmd_recv_buffer[0]);
    2e5c:	497e      	ldr	r1, [pc, #504]	; (3058 <main+0x340>)
    2e5e:	4884      	ldr	r0, [pc, #528]	; (3070 <main+0x358>)
    2e60:	4b87      	ldr	r3, [pc, #540]	; (3080 <main+0x368>)
    2e62:	4798      	blx	r3
    2e64:	e145      	b.n	30f2 <main+0x3da>
			usart_prot_handler_status = COLLECTING_HDR;
    2e66:	2203      	movs	r2, #3
    2e68:	4b7c      	ldr	r3, [pc, #496]	; (305c <main+0x344>)
    2e6a:	701a      	strb	r2, [r3, #0]
			uart_cmd_buf = usart_pkt;
    2e6c:	4b82      	ldr	r3, [pc, #520]	; (3078 <main+0x360>)
    2e6e:	681a      	ldr	r2, [r3, #0]
    2e70:	4b84      	ldr	r3, [pc, #528]	; (3084 <main+0x36c>)
    2e72:	601a      	str	r2, [r3, #0]
			schedule_rx_length = (USART_CMD_HDR_LENGTH - 1);
    2e74:	220b      	movs	r2, #11
    2e76:	4b7b      	ldr	r3, [pc, #492]	; (3064 <main+0x34c>)
    2e78:	801a      	strh	r2, [r3, #0]
			usart_read_buffer_job(module, (uint8_t *)module->rx_buffer_ptr, (USART_CMD_HDR_LENGTH - 1));
    2e7a:	487d      	ldr	r0, [pc, #500]	; (3070 <main+0x358>)
    2e7c:	6a41      	ldr	r1, [r0, #36]	; 0x24
    2e7e:	4b82      	ldr	r3, [pc, #520]	; (3088 <main+0x370>)
    2e80:	4798      	blx	r3
    2e82:	e136      	b.n	30f2 <main+0x3da>
				checksum ^= *(((uint8_t *)uart_cmd_buf) + i);
    2e84:	4b7f      	ldr	r3, [pc, #508]	; (3084 <main+0x36c>)
    2e86:	681c      	ldr	r4, [r3, #0]
    2e88:	0023      	movs	r3, r4
    2e8a:	0021      	movs	r1, r4
    2e8c:	310c      	adds	r1, #12
    2e8e:	2000      	movs	r0, #0
    2e90:	e000      	b.n	2e94 <main+0x17c>
    2e92:	0010      	movs	r0, r2
    2e94:	781f      	ldrb	r7, [r3, #0]
    2e96:	003a      	movs	r2, r7
    2e98:	4042      	eors	r2, r0
    2e9a:	b2d2      	uxtb	r2, r2
    2e9c:	3301      	adds	r3, #1
			for (i = 0; i < (USART_CMD_HDR_LENGTH); i++) {
    2e9e:	428b      	cmp	r3, r1
    2ea0:	d1f7      	bne.n	2e92 <main+0x17a>
			if (checksum != 0) {
    2ea2:	4287      	cmp	r7, r0
    2ea4:	d11b      	bne.n	2ede <main+0x1c6>
				memcpy(&uart_cmd, uart_cmd_buf, sizeof(uart_cmd_hdr));
    2ea6:	4f79      	ldr	r7, [pc, #484]	; (308c <main+0x374>)
    2ea8:	220c      	movs	r2, #12
    2eaa:	0021      	movs	r1, r4
    2eac:	0038      	movs	r0, r7
    2eae:	4b78      	ldr	r3, [pc, #480]	; (3090 <main+0x378>)
    2eb0:	4798      	blx	r3
				if ((uart_cmd.cmd & 0xFF) == WRITE_BUFF) {
    2eb2:	683a      	ldr	r2, [r7, #0]
    2eb4:	783b      	ldrb	r3, [r7, #0]
    2eb6:	2b03      	cmp	r3, #3
    2eb8:	d026      	beq.n	2f08 <main+0x1f0>
				} else if ((uart_cmd.cmd & 0xFF) == WRITE_REG) {
    2eba:	2b01      	cmp	r3, #1
    2ebc:	d03a      	beq.n	2f34 <main+0x21c>
					serial_command_pending = 1;
    2ebe:	2301      	movs	r3, #1
    2ec0:	4a74      	ldr	r2, [pc, #464]	; (3094 <main+0x37c>)
    2ec2:	7013      	strb	r3, [r2, #0]
					change_state = 1;
    2ec4:	4a74      	ldr	r2, [pc, #464]	; (3098 <main+0x380>)
    2ec6:	7013      	strb	r3, [r2, #0]
					new_state = PROCESSING;
    2ec8:	2205      	movs	r2, #5
    2eca:	4b74      	ldr	r3, [pc, #464]	; (309c <main+0x384>)
    2ecc:	701a      	strb	r2, [r3, #0]
					uartdata = 0xAC;
    2ece:	ab02      	add	r3, sp, #8
    2ed0:	1d99      	adds	r1, r3, #6
    2ed2:	23ac      	movs	r3, #172	; 0xac
    2ed4:	800b      	strh	r3, [r1, #0]
					usart_write_job(module, &uartdata);
    2ed6:	4866      	ldr	r0, [pc, #408]	; (3070 <main+0x358>)
    2ed8:	4b66      	ldr	r3, [pc, #408]	; (3074 <main+0x35c>)
    2eda:	4798      	blx	r3
    2edc:	e109      	b.n	30f2 <main+0x3da>
				usart_prot_handler_status = WAIT_SYNC;
    2ede:	2301      	movs	r3, #1
    2ee0:	4a5e      	ldr	r2, [pc, #376]	; (305c <main+0x344>)
    2ee2:	7013      	strb	r3, [r2, #0]
				usart_cmd_recv_buffer[0] = 0xFF;
    2ee4:	4a5c      	ldr	r2, [pc, #368]	; (3058 <main+0x340>)
    2ee6:	21ff      	movs	r1, #255	; 0xff
    2ee8:	8011      	strh	r1, [r2, #0]
				schedule_rx_buffer = &usart_cmd_recv_buffer[0];
    2eea:	495f      	ldr	r1, [pc, #380]	; (3068 <main+0x350>)
    2eec:	600a      	str	r2, [r1, #0]
				schedule_rx_length = 1;
    2eee:	4a5d      	ldr	r2, [pc, #372]	; (3064 <main+0x34c>)
    2ef0:	8013      	strh	r3, [r2, #0]
				schedule_rx = 1;
    2ef2:	4b5e      	ldr	r3, [pc, #376]	; (306c <main+0x354>)
    2ef4:	2201      	movs	r2, #1
    2ef6:	701a      	strb	r2, [r3, #0]
				uartdata = 0x5A;
    2ef8:	ab02      	add	r3, sp, #8
    2efa:	1d99      	adds	r1, r3, #6
    2efc:	235a      	movs	r3, #90	; 0x5a
    2efe:	800b      	strh	r3, [r1, #0]
				usart_write_job(module, &uartdata);
    2f00:	485b      	ldr	r0, [pc, #364]	; (3070 <main+0x358>)
    2f02:	4b5c      	ldr	r3, [pc, #368]	; (3074 <main+0x35c>)
    2f04:	4798      	blx	r3
    2f06:	e0f4      	b.n	30f2 <main+0x3da>
					usart_prot_handler_status = COLLECTING_PAYLOAD;
    2f08:	2104      	movs	r1, #4
    2f0a:	4b54      	ldr	r3, [pc, #336]	; (305c <main+0x344>)
    2f0c:	7019      	strb	r1, [r3, #0]
					payload_length = (uart_cmd.cmd >> 16) & 0xFFFF;
    2f0e:	0c12      	lsrs	r2, r2, #16
    2f10:	4b63      	ldr	r3, [pc, #396]	; (30a0 <main+0x388>)
    2f12:	801a      	strh	r2, [r3, #0]
					schedule_rx = 1;
    2f14:	3903      	subs	r1, #3
    2f16:	4b55      	ldr	r3, [pc, #340]	; (306c <main+0x354>)
    2f18:	7019      	strb	r1, [r3, #0]
					schedule_rx_buffer = &usart_payload_buffer[0];
    2f1a:	4962      	ldr	r1, [pc, #392]	; (30a4 <main+0x38c>)
    2f1c:	4b52      	ldr	r3, [pc, #328]	; (3068 <main+0x350>)
    2f1e:	6019      	str	r1, [r3, #0]
					schedule_rx_length = payload_length;
    2f20:	4b50      	ldr	r3, [pc, #320]	; (3064 <main+0x34c>)
    2f22:	801a      	strh	r2, [r3, #0]
					uartdata = 0xAC;
    2f24:	ab02      	add	r3, sp, #8
    2f26:	1d99      	adds	r1, r3, #6
    2f28:	23ac      	movs	r3, #172	; 0xac
    2f2a:	800b      	strh	r3, [r1, #0]
					usart_write_job(module, &uartdata);
    2f2c:	4850      	ldr	r0, [pc, #320]	; (3070 <main+0x358>)
    2f2e:	4b51      	ldr	r3, [pc, #324]	; (3074 <main+0x35c>)
    2f30:	4798      	blx	r3
    2f32:	e0de      	b.n	30f2 <main+0x3da>
					serial_command_pending = 1;
    2f34:	2201      	movs	r2, #1
    2f36:	4b57      	ldr	r3, [pc, #348]	; (3094 <main+0x37c>)
    2f38:	701a      	strb	r2, [r3, #0]
					usart_prot_handler_status = PROCESSING;
    2f3a:	3204      	adds	r2, #4
    2f3c:	4b47      	ldr	r3, [pc, #284]	; (305c <main+0x344>)
    2f3e:	701a      	strb	r2, [r3, #0]
    2f40:	e0d7      	b.n	30f2 <main+0x3da>
		if ((event_name == USART_PKT_RECEIVED) && (schedule_rx_length == payload_length)) {
    2f42:	4b48      	ldr	r3, [pc, #288]	; (3064 <main+0x34c>)
    2f44:	881a      	ldrh	r2, [r3, #0]
    2f46:	4b56      	ldr	r3, [pc, #344]	; (30a0 <main+0x388>)
    2f48:	881b      	ldrh	r3, [r3, #0]
    2f4a:	429a      	cmp	r2, r3
    2f4c:	d014      	beq.n	2f78 <main+0x260>
			usart_prot_handler_status = WAIT_SYNC;
    2f4e:	2201      	movs	r2, #1
    2f50:	4b42      	ldr	r3, [pc, #264]	; (305c <main+0x344>)
    2f52:	701a      	strb	r2, [r3, #0]
			uartdata = 0x5A;
    2f54:	ab02      	add	r3, sp, #8
    2f56:	1d99      	adds	r1, r3, #6
    2f58:	235a      	movs	r3, #90	; 0x5a
    2f5a:	800b      	strh	r3, [r1, #0]
			usart_cmd_recv_buffer[0] = 0xFF;
    2f5c:	4b3e      	ldr	r3, [pc, #248]	; (3058 <main+0x340>)
    2f5e:	20ff      	movs	r0, #255	; 0xff
    2f60:	8018      	strh	r0, [r3, #0]
			schedule_rx_length = 1;
    2f62:	4840      	ldr	r0, [pc, #256]	; (3064 <main+0x34c>)
    2f64:	8002      	strh	r2, [r0, #0]
			schedule_rx_buffer = &usart_cmd_recv_buffer[0];
    2f66:	4a40      	ldr	r2, [pc, #256]	; (3068 <main+0x350>)
    2f68:	6013      	str	r3, [r2, #0]
			schedule_rx = 1;
    2f6a:	4b40      	ldr	r3, [pc, #256]	; (306c <main+0x354>)
    2f6c:	2201      	movs	r2, #1
    2f6e:	701a      	strb	r2, [r3, #0]
			usart_write_job(module, &uartdata);
    2f70:	483f      	ldr	r0, [pc, #252]	; (3070 <main+0x358>)
    2f72:	4b40      	ldr	r3, [pc, #256]	; (3074 <main+0x35c>)
    2f74:	4798      	blx	r3
    2f76:	e0bc      	b.n	30f2 <main+0x3da>
			serial_command_pending = 1;
    2f78:	2201      	movs	r2, #1
    2f7a:	4b46      	ldr	r3, [pc, #280]	; (3094 <main+0x37c>)
    2f7c:	701a      	strb	r2, [r3, #0]
			usart_prot_handler_status = PROCESSING;
    2f7e:	3204      	adds	r2, #4
    2f80:	4b36      	ldr	r3, [pc, #216]	; (305c <main+0x344>)
    2f82:	701a      	strb	r2, [r3, #0]
    2f84:	e0b5      	b.n	30f2 <main+0x3da>
		usart_prot_handler_status = WAIT_SYNC;
    2f86:	2201      	movs	r2, #1
    2f88:	4b34      	ldr	r3, [pc, #208]	; (305c <main+0x344>)
    2f8a:	701a      	strb	r2, [r3, #0]
    2f8c:	e0b1      	b.n	30f2 <main+0x3da>
			usart_err_on_reception = 0;
    2f8e:	2200      	movs	r2, #0
    2f90:	4b45      	ldr	r3, [pc, #276]	; (30a8 <main+0x390>)
    2f92:	701a      	strb	r2, [r3, #0]
	switch (usart_prot_handler_status) {
    2f94:	4b31      	ldr	r3, [pc, #196]	; (305c <main+0x344>)
    2f96:	781a      	ldrb	r2, [r3, #0]
    2f98:	2a04      	cmp	r2, #4
    2f9a:	d84e      	bhi.n	303a <main+0x322>
    2f9c:	0093      	lsls	r3, r2, #2
    2f9e:	4a43      	ldr	r2, [pc, #268]	; (30ac <main+0x394>)
    2fa0:	58d3      	ldr	r3, [r2, r3]
    2fa2:	469f      	mov	pc, r3
			usart_cmd_recv_buffer[0] = 0xFF;
    2fa4:	4b2c      	ldr	r3, [pc, #176]	; (3058 <main+0x340>)
    2fa6:	22ff      	movs	r2, #255	; 0xff
    2fa8:	801a      	strh	r2, [r3, #0]
			schedule_rx_buffer = &usart_cmd_recv_buffer[0];
    2faa:	4a2f      	ldr	r2, [pc, #188]	; (3068 <main+0x350>)
    2fac:	6013      	str	r3, [r2, #0]
			schedule_rx_length = 1;
    2fae:	2201      	movs	r2, #1
    2fb0:	4b2c      	ldr	r3, [pc, #176]	; (3064 <main+0x34c>)
    2fb2:	801a      	strh	r2, [r3, #0]
			schedule_rx = 1;
    2fb4:	4b2d      	ldr	r3, [pc, #180]	; (306c <main+0x354>)
    2fb6:	701a      	strb	r2, [r3, #0]
			uartdata = 0xEA;
    2fb8:	ab02      	add	r3, sp, #8
    2fba:	1d99      	adds	r1, r3, #6
    2fbc:	23ea      	movs	r3, #234	; 0xea
    2fbe:	800b      	strh	r3, [r1, #0]
			usart_write_job(module, &uartdata);
    2fc0:	482b      	ldr	r0, [pc, #172]	; (3070 <main+0x358>)
    2fc2:	4b2c      	ldr	r3, [pc, #176]	; (3074 <main+0x35c>)
    2fc4:	4798      	blx	r3
    2fc6:	e099      	b.n	30fc <main+0x3e4>
			usart_prot_handler_status = WAIT_SYNC;
    2fc8:	2301      	movs	r3, #1
    2fca:	4a24      	ldr	r2, [pc, #144]	; (305c <main+0x344>)
    2fcc:	7013      	strb	r3, [r2, #0]
			schedule_rx_buffer = &usart_cmd_recv_buffer[0];
    2fce:	4922      	ldr	r1, [pc, #136]	; (3058 <main+0x340>)
    2fd0:	4a25      	ldr	r2, [pc, #148]	; (3068 <main+0x350>)
    2fd2:	6011      	str	r1, [r2, #0]
			schedule_rx = 1;
    2fd4:	4a25      	ldr	r2, [pc, #148]	; (306c <main+0x354>)
    2fd6:	7013      	strb	r3, [r2, #0]
			schedule_rx_length = 1;
    2fd8:	4a22      	ldr	r2, [pc, #136]	; (3064 <main+0x34c>)
    2fda:	8013      	strh	r3, [r2, #0]
			uartdata = 0xEA;
    2fdc:	ab02      	add	r3, sp, #8
    2fde:	1d99      	adds	r1, r3, #6
    2fe0:	23ea      	movs	r3, #234	; 0xea
    2fe2:	800b      	strh	r3, [r1, #0]
			usart_write_job(module, &uartdata);
    2fe4:	4822      	ldr	r0, [pc, #136]	; (3070 <main+0x358>)
    2fe6:	4b23      	ldr	r3, [pc, #140]	; (3074 <main+0x35c>)
    2fe8:	4798      	blx	r3
    2fea:	e087      	b.n	30fc <main+0x3e4>
			usart_prot_handler_status = WAIT_SYNC;
    2fec:	2301      	movs	r3, #1
    2fee:	4a1b      	ldr	r2, [pc, #108]	; (305c <main+0x344>)
    2ff0:	7013      	strb	r3, [r2, #0]
			schedule_rx_buffer = &usart_cmd_recv_buffer[0];
    2ff2:	4919      	ldr	r1, [pc, #100]	; (3058 <main+0x340>)
    2ff4:	4a1c      	ldr	r2, [pc, #112]	; (3068 <main+0x350>)
    2ff6:	6011      	str	r1, [r2, #0]
			schedule_rx = 1;
    2ff8:	4a1c      	ldr	r2, [pc, #112]	; (306c <main+0x354>)
    2ffa:	7013      	strb	r3, [r2, #0]
			schedule_rx_length = 1;
    2ffc:	4a19      	ldr	r2, [pc, #100]	; (3064 <main+0x34c>)
    2ffe:	8013      	strh	r3, [r2, #0]
			uartdata = 0xEA;
    3000:	ab02      	add	r3, sp, #8
    3002:	1d99      	adds	r1, r3, #6
    3004:	23ea      	movs	r3, #234	; 0xea
    3006:	800b      	strh	r3, [r1, #0]
			usart_write_job(module, &uartdata);
    3008:	4819      	ldr	r0, [pc, #100]	; (3070 <main+0x358>)
    300a:	4b1a      	ldr	r3, [pc, #104]	; (3074 <main+0x35c>)
    300c:	4798      	blx	r3
    300e:	e075      	b.n	30fc <main+0x3e4>
			usart_prot_handler_status = WAIT_SYNC;
    3010:	2201      	movs	r2, #1
    3012:	4b12      	ldr	r3, [pc, #72]	; (305c <main+0x344>)
    3014:	701a      	strb	r2, [r3, #0]
			uartdata = 0xEA;
    3016:	ab02      	add	r3, sp, #8
    3018:	1d99      	adds	r1, r3, #6
    301a:	23ea      	movs	r3, #234	; 0xea
    301c:	800b      	strh	r3, [r1, #0]
			usart_cmd_recv_buffer[0] = 0xFF;
    301e:	4b0e      	ldr	r3, [pc, #56]	; (3058 <main+0x340>)
    3020:	20ff      	movs	r0, #255	; 0xff
    3022:	8018      	strh	r0, [r3, #0]
			schedule_rx_length = 1;
    3024:	480f      	ldr	r0, [pc, #60]	; (3064 <main+0x34c>)
    3026:	8002      	strh	r2, [r0, #0]
			schedule_rx_buffer = &usart_cmd_recv_buffer[0];
    3028:	4a0f      	ldr	r2, [pc, #60]	; (3068 <main+0x350>)
    302a:	6013      	str	r3, [r2, #0]
			schedule_rx = 1;
    302c:	4b0f      	ldr	r3, [pc, #60]	; (306c <main+0x354>)
    302e:	2201      	movs	r2, #1
    3030:	701a      	strb	r2, [r3, #0]
			usart_write_job(module, &uartdata);
    3032:	480f      	ldr	r0, [pc, #60]	; (3070 <main+0x358>)
    3034:	4b0f      	ldr	r3, [pc, #60]	; (3074 <main+0x35c>)
    3036:	4798      	blx	r3
    3038:	e060      	b.n	30fc <main+0x3e4>
		usart_prot_handler_status = WAIT_SYNC;
    303a:	2201      	movs	r2, #1
    303c:	4b07      	ldr	r3, [pc, #28]	; (305c <main+0x344>)
    303e:	701a      	strb	r2, [r3, #0]
    3040:	e05c      	b.n	30fc <main+0x3e4>
    3042:	46c0      	nop			; (mov r8, r8)
    3044:	00002a01 	.word	0x00002a01
    3048:	00002be9 	.word	0x00002be9
    304c:	00000dfd 	.word	0x00000dfd
    3050:	00000115 	.word	0x00000115
    3054:	2000054c 	.word	0x2000054c
    3058:	20000134 	.word	0x20000134
    305c:	2000054d 	.word	0x2000054d
    3060:	000040c0 	.word	0x000040c0
    3064:	2000011c 	.word	0x2000011c
    3068:	20000118 	.word	0x20000118
    306c:	20000114 	.word	0x20000114
    3070:	200000dc 	.word	0x200000dc
    3074:	00001fa5 	.word	0x00001fa5
    3078:	20000548 	.word	0x20000548
    307c:	20000130 	.word	0x20000130
    3080:	00001fc1 	.word	0x00001fc1
    3084:	2000012c 	.word	0x2000012c
    3088:	00001ff1 	.word	0x00001ff1
    308c:	20000120 	.word	0x20000120
    3090:	00003419 	.word	0x00003419
    3094:	2000011e 	.word	0x2000011e
    3098:	20000110 	.word	0x20000110
    309c:	20000111 	.word	0x20000111
    30a0:	20000112 	.word	0x20000112
    30a4:	20000148 	.word	0x20000148
    30a8:	20000144 	.word	0x20000144
    30ac:	000040d4 	.word	0x000040d4
				temp = nm_read_reg(uart_cmd.addr);
    30b0:	4b4f      	ldr	r3, [pc, #316]	; (31f0 <main+0x4d8>)
    30b2:	6858      	ldr	r0, [r3, #4]
    30b4:	4b4f      	ldr	r3, [pc, #316]	; (31f4 <main+0x4dc>)
    30b6:	4798      	blx	r3
				schedule_rx_buffer = &usart_cmd_recv_buffer[0];
    30b8:	4a4f      	ldr	r2, [pc, #316]	; (31f8 <main+0x4e0>)
    30ba:	4b50      	ldr	r3, [pc, #320]	; (31fc <main+0x4e4>)
    30bc:	601a      	str	r2, [r3, #0]
				schedule_rx_length = 1;
    30be:	2201      	movs	r2, #1
    30c0:	4b4f      	ldr	r3, [pc, #316]	; (3200 <main+0x4e8>)
    30c2:	801a      	strh	r2, [r3, #0]
				schedule_rx = 1;
    30c4:	4b4f      	ldr	r3, [pc, #316]	; (3204 <main+0x4ec>)
    30c6:	701a      	strb	r2, [r3, #0]
				usart_prot_handler_status = WAIT_SYNC;
    30c8:	4b4f      	ldr	r3, [pc, #316]	; (3208 <main+0x4f0>)
    30ca:	701a      	strb	r2, [r3, #0]
		tx_data[i] = tx_data[j];
    30cc:	494f      	ldr	r1, [pc, #316]	; (320c <main+0x4f4>)
				usart_tx_buffer[3] = (uint8)(temp >> 24);
    30ce:	0e03      	lsrs	r3, r0, #24
    30d0:	700b      	strb	r3, [r1, #0]
				usart_tx_buffer[0] = (uint8)(temp >> 0);
    30d2:	70c8      	strb	r0, [r1, #3]
				usart_tx_buffer[2] = (uint8)(temp >> 16);
    30d4:	0c03      	lsrs	r3, r0, #16
    30d6:	704b      	strb	r3, [r1, #1]
				usart_tx_buffer[1] = (uint8)(temp >> 8);
    30d8:	0a00      	lsrs	r0, r0, #8
    30da:	7088      	strb	r0, [r1, #2]
	usart_write_buffer_job(module, tx_data, length);
    30dc:	2204      	movs	r2, #4
    30de:	484c      	ldr	r0, [pc, #304]	; (3210 <main+0x4f8>)
    30e0:	4b4c      	ldr	r3, [pc, #304]	; (3214 <main+0x4fc>)
    30e2:	4798      	blx	r3
			serial_command_pending = 0;
    30e4:	2200      	movs	r2, #0
    30e6:	4b4c      	ldr	r3, [pc, #304]	; (3218 <main+0x500>)
    30e8:	701a      	strb	r2, [r3, #0]
		if (usart_pkt_received) {
    30ea:	782b      	ldrb	r3, [r5, #0]
    30ec:	2b00      	cmp	r3, #0
    30ee:	d000      	beq.n	30f2 <main+0x3da>
    30f0:	e629      	b.n	2d46 <main+0x2e>
		if (usart_err_on_reception) {
    30f2:	4b4a      	ldr	r3, [pc, #296]	; (321c <main+0x504>)
    30f4:	781b      	ldrb	r3, [r3, #0]
    30f6:	2b00      	cmp	r3, #0
    30f8:	d000      	beq.n	30fc <main+0x3e4>
    30fa:	e748      	b.n	2f8e <main+0x276>
		if (serial_command_pending && (usart_prot_handler_status == PROCESSING)) {
    30fc:	4b46      	ldr	r3, [pc, #280]	; (3218 <main+0x500>)
    30fe:	781b      	ldrb	r3, [r3, #0]
    3100:	2b00      	cmp	r3, #0
    3102:	d0f2      	beq.n	30ea <main+0x3d2>
    3104:	4b40      	ldr	r3, [pc, #256]	; (3208 <main+0x4f0>)
    3106:	781b      	ldrb	r3, [r3, #0]
    3108:	2b05      	cmp	r3, #5
    310a:	d1ee      	bne.n	30ea <main+0x3d2>
			switch ((uart_cmd.cmd) & 0xFF) {
    310c:	4b38      	ldr	r3, [pc, #224]	; (31f0 <main+0x4d8>)
    310e:	681a      	ldr	r2, [r3, #0]
    3110:	781b      	ldrb	r3, [r3, #0]
    3112:	2b05      	cmp	r3, #5
    3114:	d8e6      	bhi.n	30e4 <main+0x3cc>
    3116:	009b      	lsls	r3, r3, #2
    3118:	4941      	ldr	r1, [pc, #260]	; (3220 <main+0x508>)
    311a:	58cb      	ldr	r3, [r1, r3]
    311c:	469f      	mov	pc, r3
				nm_write_reg(uart_cmd.addr, uart_cmd.val);
    311e:	4b34      	ldr	r3, [pc, #208]	; (31f0 <main+0x4d8>)
    3120:	6899      	ldr	r1, [r3, #8]
    3122:	6858      	ldr	r0, [r3, #4]
    3124:	4b3f      	ldr	r3, [pc, #252]	; (3224 <main+0x50c>)
    3126:	4798      	blx	r3
				schedule_rx_buffer = &usart_cmd_recv_buffer[0];
    3128:	4a33      	ldr	r2, [pc, #204]	; (31f8 <main+0x4e0>)
    312a:	4b34      	ldr	r3, [pc, #208]	; (31fc <main+0x4e4>)
    312c:	601a      	str	r2, [r3, #0]
				schedule_rx_length = 1;
    312e:	2201      	movs	r2, #1
    3130:	4b33      	ldr	r3, [pc, #204]	; (3200 <main+0x4e8>)
    3132:	801a      	strh	r2, [r3, #0]
				schedule_rx = 1;
    3134:	4b33      	ldr	r3, [pc, #204]	; (3204 <main+0x4ec>)
    3136:	701a      	strb	r2, [r3, #0]
				uartdata = 0xAC;
    3138:	a903      	add	r1, sp, #12
    313a:	23ac      	movs	r3, #172	; 0xac
    313c:	800b      	strh	r3, [r1, #0]
				usart_prot_handler_status = WAIT_SYNC;
    313e:	4b32      	ldr	r3, [pc, #200]	; (3208 <main+0x4f0>)
    3140:	701a      	strb	r2, [r3, #0]
				usart_write_job(&cdc_uart_module, &uartdata);
    3142:	4833      	ldr	r0, [pc, #204]	; (3210 <main+0x4f8>)
    3144:	4b38      	ldr	r3, [pc, #224]	; (3228 <main+0x510>)
    3146:	4798      	blx	r3
    3148:	e7cc      	b.n	30e4 <main+0x3cc>
				nm_read_block(uart_cmd.addr, (uint8 *)&usart_payload_buffer[0], ((uart_cmd.cmd >> 16) & 0xFFFF));
    314a:	0c12      	lsrs	r2, r2, #16
    314c:	4f37      	ldr	r7, [pc, #220]	; (322c <main+0x514>)
    314e:	4c28      	ldr	r4, [pc, #160]	; (31f0 <main+0x4d8>)
    3150:	0039      	movs	r1, r7
    3152:	6860      	ldr	r0, [r4, #4]
    3154:	4b36      	ldr	r3, [pc, #216]	; (3230 <main+0x518>)
    3156:	4798      	blx	r3
				schedule_rx_buffer = &usart_cmd_recv_buffer[0];
    3158:	4a27      	ldr	r2, [pc, #156]	; (31f8 <main+0x4e0>)
    315a:	4b28      	ldr	r3, [pc, #160]	; (31fc <main+0x4e4>)
    315c:	601a      	str	r2, [r3, #0]
				schedule_rx_length = 1;
    315e:	2201      	movs	r2, #1
    3160:	4b27      	ldr	r3, [pc, #156]	; (3200 <main+0x4e8>)
    3162:	801a      	strh	r2, [r3, #0]
				schedule_rx = 1;
    3164:	4b27      	ldr	r3, [pc, #156]	; (3204 <main+0x4ec>)
    3166:	701a      	strb	r2, [r3, #0]
				usart_prot_handler_status = WAIT_SYNC;
    3168:	4b27      	ldr	r3, [pc, #156]	; (3208 <main+0x4f0>)
    316a:	701a      	strb	r2, [r3, #0]
				usart_write_buffer_job(&cdc_uart_module, (uint8 *)&usart_payload_buffer[0], ((uart_cmd.cmd >> 16) & 0xFFFF));
    316c:	8862      	ldrh	r2, [r4, #2]
    316e:	0039      	movs	r1, r7
    3170:	4827      	ldr	r0, [pc, #156]	; (3210 <main+0x4f8>)
    3172:	4b28      	ldr	r3, [pc, #160]	; (3214 <main+0x4fc>)
    3174:	4798      	blx	r3
    3176:	e7b5      	b.n	30e4 <main+0x3cc>
				nm_write_block(uart_cmd.addr, (uint8 *)&usart_payload_buffer[0], ((uart_cmd.cmd >> 16) & 0xFFFF));
    3178:	0c12      	lsrs	r2, r2, #16
    317a:	4b1d      	ldr	r3, [pc, #116]	; (31f0 <main+0x4d8>)
    317c:	6858      	ldr	r0, [r3, #4]
    317e:	492b      	ldr	r1, [pc, #172]	; (322c <main+0x514>)
    3180:	4b2c      	ldr	r3, [pc, #176]	; (3234 <main+0x51c>)
    3182:	4798      	blx	r3
				schedule_rx_buffer = &usart_cmd_recv_buffer[0];
    3184:	4a1c      	ldr	r2, [pc, #112]	; (31f8 <main+0x4e0>)
    3186:	4b1d      	ldr	r3, [pc, #116]	; (31fc <main+0x4e4>)
    3188:	601a      	str	r2, [r3, #0]
				schedule_rx_length = 1;
    318a:	2201      	movs	r2, #1
    318c:	4b1c      	ldr	r3, [pc, #112]	; (3200 <main+0x4e8>)
    318e:	801a      	strh	r2, [r3, #0]
				schedule_rx = 1;
    3190:	4b1c      	ldr	r3, [pc, #112]	; (3204 <main+0x4ec>)
    3192:	701a      	strb	r2, [r3, #0]
				uartdata = 0xAC;
    3194:	a903      	add	r1, sp, #12
    3196:	23ac      	movs	r3, #172	; 0xac
    3198:	800b      	strh	r3, [r1, #0]
				usart_prot_handler_status = WAIT_SYNC;
    319a:	4b1b      	ldr	r3, [pc, #108]	; (3208 <main+0x4f0>)
    319c:	701a      	strb	r2, [r3, #0]
				usart_write_job(&cdc_uart_module, &uartdata);
    319e:	481c      	ldr	r0, [pc, #112]	; (3210 <main+0x4f8>)
    31a0:	4b21      	ldr	r3, [pc, #132]	; (3228 <main+0x510>)
    31a2:	4798      	blx	r3
    31a4:	e79e      	b.n	30e4 <main+0x3cc>
				usart_prot_handler_status = WAIT_SYNC;
    31a6:	2701      	movs	r7, #1
    31a8:	4b17      	ldr	r3, [pc, #92]	; (3208 <main+0x4f0>)
    31aa:	701f      	strb	r7, [r3, #0]
				uart_reconfigure = 1;
    31ac:	4b22      	ldr	r3, [pc, #136]	; (3238 <main+0x520>)
    31ae:	701f      	strb	r7, [r3, #0]
	/* Sanity check arguments */
	Assert(module);
	Assert(module->hw);

	/* Get a pointer to the hardware module instance */
	SercomUsart *const usart_hw = &(module->hw->USART);
    31b0:	4e17      	ldr	r6, [pc, #92]	; (3210 <main+0x4f8>)
    31b2:	6834      	ldr	r4, [r6, #0]

#if USART_CALLBACK_MODE == true
	/* Disable Global interrupt for module */
	system_interrupt_disable(_sercom_get_interrupt_vector(module->hw));
    31b4:	0020      	movs	r0, r4
    31b6:	4b21      	ldr	r3, [pc, #132]	; (323c <main+0x524>)
    31b8:	4798      	blx	r3
 * \param[in] vector  Interrupt vector to disable
 */
static inline void system_interrupt_disable(
		const enum system_interrupt_vector vector)
{
	NVIC->ICER[0] = (uint32_t)(1 << ((uint32_t)vector & 0x0000001f));
    31ba:	231f      	movs	r3, #31
    31bc:	4018      	ands	r0, r3
    31be:	4087      	lsls	r7, r0
    31c0:	3361      	adds	r3, #97	; 0x61
    31c2:	4a1f      	ldr	r2, [pc, #124]	; (3240 <main+0x528>)
    31c4:	50d7      	str	r7, [r2, r3]
	SercomUsart *const usart_hw = &(module->hw->USART);
    31c6:	6832      	ldr	r2, [r6, #0]
	return (usart_hw->SYNCBUSY.reg);
    31c8:	69d3      	ldr	r3, [r2, #28]
	while (usart_is_syncing(module)) {
    31ca:	2b00      	cmp	r3, #0
    31cc:	d1fc      	bne.n	31c8 <main+0x4b0>

	/* Wait until synchronization is complete */
	_usart_wait_for_sync(module);

	/* Disable USART module */
	usart_hw->CTRLA.reg &= ~SERCOM_USART_CTRLA_ENABLE;
    31ce:	6823      	ldr	r3, [r4, #0]
    31d0:	2202      	movs	r2, #2
    31d2:	4393      	bics	r3, r2
    31d4:	6023      	str	r3, [r4, #0]
				configure_console(uart_cmd.val);
    31d6:	4b06      	ldr	r3, [pc, #24]	; (31f0 <main+0x4d8>)
    31d8:	6898      	ldr	r0, [r3, #8]
    31da:	4b1a      	ldr	r3, [pc, #104]	; (3244 <main+0x52c>)
    31dc:	4798      	blx	r3
    31de:	e781      	b.n	30e4 <main+0x3cc>
		puts("Failed to put the WiFi Chip in download mode!\n");
    31e0:	4819      	ldr	r0, [pc, #100]	; (3248 <main+0x530>)
    31e2:	4b1a      	ldr	r3, [pc, #104]	; (324c <main+0x534>)
    31e4:	4798      	blx	r3
	/* Enter WiFi firmware download mode. */
	enter_wifi_firmware_download();

	return 0;
}
    31e6:	2000      	movs	r0, #0
    31e8:	b004      	add	sp, #16
    31ea:	bc04      	pop	{r2}
    31ec:	4690      	mov	r8, r2
    31ee:	bdf0      	pop	{r4, r5, r6, r7, pc}
    31f0:	20000120 	.word	0x20000120
    31f4:	000003c5 	.word	0x000003c5
    31f8:	20000134 	.word	0x20000134
    31fc:	20000118 	.word	0x20000118
    3200:	2000011c 	.word	0x2000011c
    3204:	20000114 	.word	0x20000114
    3208:	2000054d 	.word	0x2000054d
    320c:	20000550 	.word	0x20000550
    3210:	200000dc 	.word	0x200000dc
    3214:	00001fd1 	.word	0x00001fd1
    3218:	2000011e 	.word	0x2000011e
    321c:	20000144 	.word	0x20000144
    3220:	000040e8 	.word	0x000040e8
    3224:	000003dd 	.word	0x000003dd
    3228:	00001fa5 	.word	0x00001fa5
    322c:	20000148 	.word	0x20000148
    3230:	000003e9 	.word	0x000003e9
    3234:	00000451 	.word	0x00000451
    3238:	20000130 	.word	0x20000130
    323c:	000015c1 	.word	0x000015c1
    3240:	e000e100 	.word	0xe000e100
    3244:	00002be9 	.word	0x00002be9
    3248:	00004100 	.word	0x00004100
    324c:	0000364d 	.word	0x0000364d

00003250 <__udivsi3>:
    3250:	2200      	movs	r2, #0
    3252:	0843      	lsrs	r3, r0, #1
    3254:	428b      	cmp	r3, r1
    3256:	d374      	bcc.n	3342 <__udivsi3+0xf2>
    3258:	0903      	lsrs	r3, r0, #4
    325a:	428b      	cmp	r3, r1
    325c:	d35f      	bcc.n	331e <__udivsi3+0xce>
    325e:	0a03      	lsrs	r3, r0, #8
    3260:	428b      	cmp	r3, r1
    3262:	d344      	bcc.n	32ee <__udivsi3+0x9e>
    3264:	0b03      	lsrs	r3, r0, #12
    3266:	428b      	cmp	r3, r1
    3268:	d328      	bcc.n	32bc <__udivsi3+0x6c>
    326a:	0c03      	lsrs	r3, r0, #16
    326c:	428b      	cmp	r3, r1
    326e:	d30d      	bcc.n	328c <__udivsi3+0x3c>
    3270:	22ff      	movs	r2, #255	; 0xff
    3272:	0209      	lsls	r1, r1, #8
    3274:	ba12      	rev	r2, r2
    3276:	0c03      	lsrs	r3, r0, #16
    3278:	428b      	cmp	r3, r1
    327a:	d302      	bcc.n	3282 <__udivsi3+0x32>
    327c:	1212      	asrs	r2, r2, #8
    327e:	0209      	lsls	r1, r1, #8
    3280:	d065      	beq.n	334e <__udivsi3+0xfe>
    3282:	0b03      	lsrs	r3, r0, #12
    3284:	428b      	cmp	r3, r1
    3286:	d319      	bcc.n	32bc <__udivsi3+0x6c>
    3288:	e000      	b.n	328c <__udivsi3+0x3c>
    328a:	0a09      	lsrs	r1, r1, #8
    328c:	0bc3      	lsrs	r3, r0, #15
    328e:	428b      	cmp	r3, r1
    3290:	d301      	bcc.n	3296 <__udivsi3+0x46>
    3292:	03cb      	lsls	r3, r1, #15
    3294:	1ac0      	subs	r0, r0, r3
    3296:	4152      	adcs	r2, r2
    3298:	0b83      	lsrs	r3, r0, #14
    329a:	428b      	cmp	r3, r1
    329c:	d301      	bcc.n	32a2 <__udivsi3+0x52>
    329e:	038b      	lsls	r3, r1, #14
    32a0:	1ac0      	subs	r0, r0, r3
    32a2:	4152      	adcs	r2, r2
    32a4:	0b43      	lsrs	r3, r0, #13
    32a6:	428b      	cmp	r3, r1
    32a8:	d301      	bcc.n	32ae <__udivsi3+0x5e>
    32aa:	034b      	lsls	r3, r1, #13
    32ac:	1ac0      	subs	r0, r0, r3
    32ae:	4152      	adcs	r2, r2
    32b0:	0b03      	lsrs	r3, r0, #12
    32b2:	428b      	cmp	r3, r1
    32b4:	d301      	bcc.n	32ba <__udivsi3+0x6a>
    32b6:	030b      	lsls	r3, r1, #12
    32b8:	1ac0      	subs	r0, r0, r3
    32ba:	4152      	adcs	r2, r2
    32bc:	0ac3      	lsrs	r3, r0, #11
    32be:	428b      	cmp	r3, r1
    32c0:	d301      	bcc.n	32c6 <__udivsi3+0x76>
    32c2:	02cb      	lsls	r3, r1, #11
    32c4:	1ac0      	subs	r0, r0, r3
    32c6:	4152      	adcs	r2, r2
    32c8:	0a83      	lsrs	r3, r0, #10
    32ca:	428b      	cmp	r3, r1
    32cc:	d301      	bcc.n	32d2 <__udivsi3+0x82>
    32ce:	028b      	lsls	r3, r1, #10
    32d0:	1ac0      	subs	r0, r0, r3
    32d2:	4152      	adcs	r2, r2
    32d4:	0a43      	lsrs	r3, r0, #9
    32d6:	428b      	cmp	r3, r1
    32d8:	d301      	bcc.n	32de <__udivsi3+0x8e>
    32da:	024b      	lsls	r3, r1, #9
    32dc:	1ac0      	subs	r0, r0, r3
    32de:	4152      	adcs	r2, r2
    32e0:	0a03      	lsrs	r3, r0, #8
    32e2:	428b      	cmp	r3, r1
    32e4:	d301      	bcc.n	32ea <__udivsi3+0x9a>
    32e6:	020b      	lsls	r3, r1, #8
    32e8:	1ac0      	subs	r0, r0, r3
    32ea:	4152      	adcs	r2, r2
    32ec:	d2cd      	bcs.n	328a <__udivsi3+0x3a>
    32ee:	09c3      	lsrs	r3, r0, #7
    32f0:	428b      	cmp	r3, r1
    32f2:	d301      	bcc.n	32f8 <__udivsi3+0xa8>
    32f4:	01cb      	lsls	r3, r1, #7
    32f6:	1ac0      	subs	r0, r0, r3
    32f8:	4152      	adcs	r2, r2
    32fa:	0983      	lsrs	r3, r0, #6
    32fc:	428b      	cmp	r3, r1
    32fe:	d301      	bcc.n	3304 <__udivsi3+0xb4>
    3300:	018b      	lsls	r3, r1, #6
    3302:	1ac0      	subs	r0, r0, r3
    3304:	4152      	adcs	r2, r2
    3306:	0943      	lsrs	r3, r0, #5
    3308:	428b      	cmp	r3, r1
    330a:	d301      	bcc.n	3310 <__udivsi3+0xc0>
    330c:	014b      	lsls	r3, r1, #5
    330e:	1ac0      	subs	r0, r0, r3
    3310:	4152      	adcs	r2, r2
    3312:	0903      	lsrs	r3, r0, #4
    3314:	428b      	cmp	r3, r1
    3316:	d301      	bcc.n	331c <__udivsi3+0xcc>
    3318:	010b      	lsls	r3, r1, #4
    331a:	1ac0      	subs	r0, r0, r3
    331c:	4152      	adcs	r2, r2
    331e:	08c3      	lsrs	r3, r0, #3
    3320:	428b      	cmp	r3, r1
    3322:	d301      	bcc.n	3328 <__udivsi3+0xd8>
    3324:	00cb      	lsls	r3, r1, #3
    3326:	1ac0      	subs	r0, r0, r3
    3328:	4152      	adcs	r2, r2
    332a:	0883      	lsrs	r3, r0, #2
    332c:	428b      	cmp	r3, r1
    332e:	d301      	bcc.n	3334 <__udivsi3+0xe4>
    3330:	008b      	lsls	r3, r1, #2
    3332:	1ac0      	subs	r0, r0, r3
    3334:	4152      	adcs	r2, r2
    3336:	0843      	lsrs	r3, r0, #1
    3338:	428b      	cmp	r3, r1
    333a:	d301      	bcc.n	3340 <__udivsi3+0xf0>
    333c:	004b      	lsls	r3, r1, #1
    333e:	1ac0      	subs	r0, r0, r3
    3340:	4152      	adcs	r2, r2
    3342:	1a41      	subs	r1, r0, r1
    3344:	d200      	bcs.n	3348 <__udivsi3+0xf8>
    3346:	4601      	mov	r1, r0
    3348:	4152      	adcs	r2, r2
    334a:	4610      	mov	r0, r2
    334c:	4770      	bx	lr
    334e:	e7ff      	b.n	3350 <__udivsi3+0x100>
    3350:	b501      	push	{r0, lr}
    3352:	2000      	movs	r0, #0
    3354:	f000 f806 	bl	3364 <__aeabi_idiv0>
    3358:	bd02      	pop	{r1, pc}
    335a:	46c0      	nop			; (mov r8, r8)

0000335c <__aeabi_uidivmod>:
    335c:	2900      	cmp	r1, #0
    335e:	d0f7      	beq.n	3350 <__udivsi3+0x100>
    3360:	e776      	b.n	3250 <__udivsi3>
    3362:	4770      	bx	lr

00003364 <__aeabi_idiv0>:
    3364:	4770      	bx	lr
    3366:	46c0      	nop			; (mov r8, r8)

00003368 <__aeabi_lmul>:
    3368:	b5f0      	push	{r4, r5, r6, r7, lr}
    336a:	46ce      	mov	lr, r9
    336c:	4647      	mov	r7, r8
    336e:	0415      	lsls	r5, r2, #16
    3370:	0c2d      	lsrs	r5, r5, #16
    3372:	002e      	movs	r6, r5
    3374:	b580      	push	{r7, lr}
    3376:	0407      	lsls	r7, r0, #16
    3378:	0c14      	lsrs	r4, r2, #16
    337a:	0c3f      	lsrs	r7, r7, #16
    337c:	4699      	mov	r9, r3
    337e:	0c03      	lsrs	r3, r0, #16
    3380:	437e      	muls	r6, r7
    3382:	435d      	muls	r5, r3
    3384:	4367      	muls	r7, r4
    3386:	4363      	muls	r3, r4
    3388:	197f      	adds	r7, r7, r5
    338a:	0c34      	lsrs	r4, r6, #16
    338c:	19e4      	adds	r4, r4, r7
    338e:	469c      	mov	ip, r3
    3390:	42a5      	cmp	r5, r4
    3392:	d903      	bls.n	339c <__aeabi_lmul+0x34>
    3394:	2380      	movs	r3, #128	; 0x80
    3396:	025b      	lsls	r3, r3, #9
    3398:	4698      	mov	r8, r3
    339a:	44c4      	add	ip, r8
    339c:	464b      	mov	r3, r9
    339e:	4351      	muls	r1, r2
    33a0:	4343      	muls	r3, r0
    33a2:	0436      	lsls	r6, r6, #16
    33a4:	0c36      	lsrs	r6, r6, #16
    33a6:	0c25      	lsrs	r5, r4, #16
    33a8:	0424      	lsls	r4, r4, #16
    33aa:	4465      	add	r5, ip
    33ac:	19a4      	adds	r4, r4, r6
    33ae:	1859      	adds	r1, r3, r1
    33b0:	1949      	adds	r1, r1, r5
    33b2:	0020      	movs	r0, r4
    33b4:	bc0c      	pop	{r2, r3}
    33b6:	4690      	mov	r8, r2
    33b8:	4699      	mov	r9, r3
    33ba:	bdf0      	pop	{r4, r5, r6, r7, pc}

000033bc <__libc_init_array>:
    33bc:	b570      	push	{r4, r5, r6, lr}
    33be:	2600      	movs	r6, #0
    33c0:	4d0c      	ldr	r5, [pc, #48]	; (33f4 <__libc_init_array+0x38>)
    33c2:	4c0d      	ldr	r4, [pc, #52]	; (33f8 <__libc_init_array+0x3c>)
    33c4:	1b64      	subs	r4, r4, r5
    33c6:	10a4      	asrs	r4, r4, #2
    33c8:	42a6      	cmp	r6, r4
    33ca:	d109      	bne.n	33e0 <__libc_init_array+0x24>
    33cc:	2600      	movs	r6, #0
    33ce:	f000 fee1 	bl	4194 <_init>
    33d2:	4d0a      	ldr	r5, [pc, #40]	; (33fc <__libc_init_array+0x40>)
    33d4:	4c0a      	ldr	r4, [pc, #40]	; (3400 <__libc_init_array+0x44>)
    33d6:	1b64      	subs	r4, r4, r5
    33d8:	10a4      	asrs	r4, r4, #2
    33da:	42a6      	cmp	r6, r4
    33dc:	d105      	bne.n	33ea <__libc_init_array+0x2e>
    33de:	bd70      	pop	{r4, r5, r6, pc}
    33e0:	00b3      	lsls	r3, r6, #2
    33e2:	58eb      	ldr	r3, [r5, r3]
    33e4:	4798      	blx	r3
    33e6:	3601      	adds	r6, #1
    33e8:	e7ee      	b.n	33c8 <__libc_init_array+0xc>
    33ea:	00b3      	lsls	r3, r6, #2
    33ec:	58eb      	ldr	r3, [r5, r3]
    33ee:	4798      	blx	r3
    33f0:	3601      	adds	r6, #1
    33f2:	e7f2      	b.n	33da <__libc_init_array+0x1e>
    33f4:	000041a0 	.word	0x000041a0
    33f8:	000041a0 	.word	0x000041a0
    33fc:	000041a0 	.word	0x000041a0
    3400:	000041a4 	.word	0x000041a4

00003404 <malloc>:
    3404:	b510      	push	{r4, lr}
    3406:	4b03      	ldr	r3, [pc, #12]	; (3414 <malloc+0x10>)
    3408:	0001      	movs	r1, r0
    340a:	6818      	ldr	r0, [r3, #0]
    340c:	f000 f860 	bl	34d0 <_malloc_r>
    3410:	bd10      	pop	{r4, pc}
    3412:	46c0      	nop			; (mov r8, r8)
    3414:	2000000c 	.word	0x2000000c

00003418 <memcpy>:
    3418:	2300      	movs	r3, #0
    341a:	b510      	push	{r4, lr}
    341c:	429a      	cmp	r2, r3
    341e:	d100      	bne.n	3422 <memcpy+0xa>
    3420:	bd10      	pop	{r4, pc}
    3422:	5ccc      	ldrb	r4, [r1, r3]
    3424:	54c4      	strb	r4, [r0, r3]
    3426:	3301      	adds	r3, #1
    3428:	e7f8      	b.n	341c <memcpy+0x4>

0000342a <memset>:
    342a:	0003      	movs	r3, r0
    342c:	1882      	adds	r2, r0, r2
    342e:	4293      	cmp	r3, r2
    3430:	d100      	bne.n	3434 <memset+0xa>
    3432:	4770      	bx	lr
    3434:	7019      	strb	r1, [r3, #0]
    3436:	3301      	adds	r3, #1
    3438:	e7f9      	b.n	342e <memset+0x4>
	...

0000343c <_free_r>:
    343c:	b570      	push	{r4, r5, r6, lr}
    343e:	0005      	movs	r5, r0
    3440:	2900      	cmp	r1, #0
    3442:	d010      	beq.n	3466 <_free_r+0x2a>
    3444:	1f0c      	subs	r4, r1, #4
    3446:	6823      	ldr	r3, [r4, #0]
    3448:	2b00      	cmp	r3, #0
    344a:	da00      	bge.n	344e <_free_r+0x12>
    344c:	18e4      	adds	r4, r4, r3
    344e:	0028      	movs	r0, r5
    3450:	f000 fc94 	bl	3d7c <__malloc_lock>
    3454:	4a1d      	ldr	r2, [pc, #116]	; (34cc <_free_r+0x90>)
    3456:	6813      	ldr	r3, [r2, #0]
    3458:	2b00      	cmp	r3, #0
    345a:	d105      	bne.n	3468 <_free_r+0x2c>
    345c:	6063      	str	r3, [r4, #4]
    345e:	6014      	str	r4, [r2, #0]
    3460:	0028      	movs	r0, r5
    3462:	f000 fc8c 	bl	3d7e <__malloc_unlock>
    3466:	bd70      	pop	{r4, r5, r6, pc}
    3468:	42a3      	cmp	r3, r4
    346a:	d909      	bls.n	3480 <_free_r+0x44>
    346c:	6821      	ldr	r1, [r4, #0]
    346e:	1860      	adds	r0, r4, r1
    3470:	4283      	cmp	r3, r0
    3472:	d1f3      	bne.n	345c <_free_r+0x20>
    3474:	6818      	ldr	r0, [r3, #0]
    3476:	685b      	ldr	r3, [r3, #4]
    3478:	1841      	adds	r1, r0, r1
    347a:	6021      	str	r1, [r4, #0]
    347c:	e7ee      	b.n	345c <_free_r+0x20>
    347e:	0013      	movs	r3, r2
    3480:	685a      	ldr	r2, [r3, #4]
    3482:	2a00      	cmp	r2, #0
    3484:	d001      	beq.n	348a <_free_r+0x4e>
    3486:	42a2      	cmp	r2, r4
    3488:	d9f9      	bls.n	347e <_free_r+0x42>
    348a:	6819      	ldr	r1, [r3, #0]
    348c:	1858      	adds	r0, r3, r1
    348e:	42a0      	cmp	r0, r4
    3490:	d10b      	bne.n	34aa <_free_r+0x6e>
    3492:	6820      	ldr	r0, [r4, #0]
    3494:	1809      	adds	r1, r1, r0
    3496:	1858      	adds	r0, r3, r1
    3498:	6019      	str	r1, [r3, #0]
    349a:	4282      	cmp	r2, r0
    349c:	d1e0      	bne.n	3460 <_free_r+0x24>
    349e:	6810      	ldr	r0, [r2, #0]
    34a0:	6852      	ldr	r2, [r2, #4]
    34a2:	1841      	adds	r1, r0, r1
    34a4:	6019      	str	r1, [r3, #0]
    34a6:	605a      	str	r2, [r3, #4]
    34a8:	e7da      	b.n	3460 <_free_r+0x24>
    34aa:	42a0      	cmp	r0, r4
    34ac:	d902      	bls.n	34b4 <_free_r+0x78>
    34ae:	230c      	movs	r3, #12
    34b0:	602b      	str	r3, [r5, #0]
    34b2:	e7d5      	b.n	3460 <_free_r+0x24>
    34b4:	6821      	ldr	r1, [r4, #0]
    34b6:	1860      	adds	r0, r4, r1
    34b8:	4282      	cmp	r2, r0
    34ba:	d103      	bne.n	34c4 <_free_r+0x88>
    34bc:	6810      	ldr	r0, [r2, #0]
    34be:	6852      	ldr	r2, [r2, #4]
    34c0:	1841      	adds	r1, r0, r1
    34c2:	6021      	str	r1, [r4, #0]
    34c4:	6062      	str	r2, [r4, #4]
    34c6:	605c      	str	r4, [r3, #4]
    34c8:	e7ca      	b.n	3460 <_free_r+0x24>
    34ca:	46c0      	nop			; (mov r8, r8)
    34cc:	20000560 	.word	0x20000560

000034d0 <_malloc_r>:
    34d0:	2303      	movs	r3, #3
    34d2:	b570      	push	{r4, r5, r6, lr}
    34d4:	1ccd      	adds	r5, r1, #3
    34d6:	439d      	bics	r5, r3
    34d8:	3508      	adds	r5, #8
    34da:	0006      	movs	r6, r0
    34dc:	2d0c      	cmp	r5, #12
    34de:	d21e      	bcs.n	351e <_malloc_r+0x4e>
    34e0:	250c      	movs	r5, #12
    34e2:	42a9      	cmp	r1, r5
    34e4:	d81d      	bhi.n	3522 <_malloc_r+0x52>
    34e6:	0030      	movs	r0, r6
    34e8:	f000 fc48 	bl	3d7c <__malloc_lock>
    34ec:	4a25      	ldr	r2, [pc, #148]	; (3584 <_malloc_r+0xb4>)
    34ee:	6814      	ldr	r4, [r2, #0]
    34f0:	0021      	movs	r1, r4
    34f2:	2900      	cmp	r1, #0
    34f4:	d119      	bne.n	352a <_malloc_r+0x5a>
    34f6:	4c24      	ldr	r4, [pc, #144]	; (3588 <_malloc_r+0xb8>)
    34f8:	6823      	ldr	r3, [r4, #0]
    34fa:	2b00      	cmp	r3, #0
    34fc:	d103      	bne.n	3506 <_malloc_r+0x36>
    34fe:	0030      	movs	r0, r6
    3500:	f000 f8ae 	bl	3660 <_sbrk_r>
    3504:	6020      	str	r0, [r4, #0]
    3506:	0029      	movs	r1, r5
    3508:	0030      	movs	r0, r6
    350a:	f000 f8a9 	bl	3660 <_sbrk_r>
    350e:	1c43      	adds	r3, r0, #1
    3510:	d12c      	bne.n	356c <_malloc_r+0x9c>
    3512:	230c      	movs	r3, #12
    3514:	0030      	movs	r0, r6
    3516:	6033      	str	r3, [r6, #0]
    3518:	f000 fc31 	bl	3d7e <__malloc_unlock>
    351c:	e003      	b.n	3526 <_malloc_r+0x56>
    351e:	2d00      	cmp	r5, #0
    3520:	dadf      	bge.n	34e2 <_malloc_r+0x12>
    3522:	230c      	movs	r3, #12
    3524:	6033      	str	r3, [r6, #0]
    3526:	2000      	movs	r0, #0
    3528:	bd70      	pop	{r4, r5, r6, pc}
    352a:	680b      	ldr	r3, [r1, #0]
    352c:	1b5b      	subs	r3, r3, r5
    352e:	d41a      	bmi.n	3566 <_malloc_r+0x96>
    3530:	2b0b      	cmp	r3, #11
    3532:	d903      	bls.n	353c <_malloc_r+0x6c>
    3534:	600b      	str	r3, [r1, #0]
    3536:	18cc      	adds	r4, r1, r3
    3538:	6025      	str	r5, [r4, #0]
    353a:	e003      	b.n	3544 <_malloc_r+0x74>
    353c:	428c      	cmp	r4, r1
    353e:	d10e      	bne.n	355e <_malloc_r+0x8e>
    3540:	6863      	ldr	r3, [r4, #4]
    3542:	6013      	str	r3, [r2, #0]
    3544:	0030      	movs	r0, r6
    3546:	f000 fc1a 	bl	3d7e <__malloc_unlock>
    354a:	0020      	movs	r0, r4
    354c:	2207      	movs	r2, #7
    354e:	300b      	adds	r0, #11
    3550:	1d23      	adds	r3, r4, #4
    3552:	4390      	bics	r0, r2
    3554:	1ac3      	subs	r3, r0, r3
    3556:	d0e7      	beq.n	3528 <_malloc_r+0x58>
    3558:	425a      	negs	r2, r3
    355a:	50e2      	str	r2, [r4, r3]
    355c:	e7e4      	b.n	3528 <_malloc_r+0x58>
    355e:	684b      	ldr	r3, [r1, #4]
    3560:	6063      	str	r3, [r4, #4]
    3562:	000c      	movs	r4, r1
    3564:	e7ee      	b.n	3544 <_malloc_r+0x74>
    3566:	000c      	movs	r4, r1
    3568:	6849      	ldr	r1, [r1, #4]
    356a:	e7c2      	b.n	34f2 <_malloc_r+0x22>
    356c:	2303      	movs	r3, #3
    356e:	1cc4      	adds	r4, r0, #3
    3570:	439c      	bics	r4, r3
    3572:	42a0      	cmp	r0, r4
    3574:	d0e0      	beq.n	3538 <_malloc_r+0x68>
    3576:	1a21      	subs	r1, r4, r0
    3578:	0030      	movs	r0, r6
    357a:	f000 f871 	bl	3660 <_sbrk_r>
    357e:	1c43      	adds	r3, r0, #1
    3580:	d1da      	bne.n	3538 <_malloc_r+0x68>
    3582:	e7c6      	b.n	3512 <_malloc_r+0x42>
    3584:	20000560 	.word	0x20000560
    3588:	20000564 	.word	0x20000564

0000358c <_puts_r>:
    358c:	b570      	push	{r4, r5, r6, lr}
    358e:	0005      	movs	r5, r0
    3590:	000e      	movs	r6, r1
    3592:	2800      	cmp	r0, #0
    3594:	d004      	beq.n	35a0 <_puts_r+0x14>
    3596:	6983      	ldr	r3, [r0, #24]
    3598:	2b00      	cmp	r3, #0
    359a:	d101      	bne.n	35a0 <_puts_r+0x14>
    359c:	f000 faec 	bl	3b78 <__sinit>
    35a0:	69ab      	ldr	r3, [r5, #24]
    35a2:	68ac      	ldr	r4, [r5, #8]
    35a4:	2b00      	cmp	r3, #0
    35a6:	d102      	bne.n	35ae <_puts_r+0x22>
    35a8:	0028      	movs	r0, r5
    35aa:	f000 fae5 	bl	3b78 <__sinit>
    35ae:	4b24      	ldr	r3, [pc, #144]	; (3640 <_puts_r+0xb4>)
    35b0:	429c      	cmp	r4, r3
    35b2:	d10f      	bne.n	35d4 <_puts_r+0x48>
    35b4:	686c      	ldr	r4, [r5, #4]
    35b6:	89a3      	ldrh	r3, [r4, #12]
    35b8:	071b      	lsls	r3, r3, #28
    35ba:	d502      	bpl.n	35c2 <_puts_r+0x36>
    35bc:	6923      	ldr	r3, [r4, #16]
    35be:	2b00      	cmp	r3, #0
    35c0:	d120      	bne.n	3604 <_puts_r+0x78>
    35c2:	0021      	movs	r1, r4
    35c4:	0028      	movs	r0, r5
    35c6:	f000 f969 	bl	389c <__swsetup_r>
    35ca:	2800      	cmp	r0, #0
    35cc:	d01a      	beq.n	3604 <_puts_r+0x78>
    35ce:	2001      	movs	r0, #1
    35d0:	4240      	negs	r0, r0
    35d2:	bd70      	pop	{r4, r5, r6, pc}
    35d4:	4b1b      	ldr	r3, [pc, #108]	; (3644 <_puts_r+0xb8>)
    35d6:	429c      	cmp	r4, r3
    35d8:	d101      	bne.n	35de <_puts_r+0x52>
    35da:	68ac      	ldr	r4, [r5, #8]
    35dc:	e7eb      	b.n	35b6 <_puts_r+0x2a>
    35de:	4b1a      	ldr	r3, [pc, #104]	; (3648 <_puts_r+0xbc>)
    35e0:	429c      	cmp	r4, r3
    35e2:	d1e8      	bne.n	35b6 <_puts_r+0x2a>
    35e4:	68ec      	ldr	r4, [r5, #12]
    35e6:	e7e6      	b.n	35b6 <_puts_r+0x2a>
    35e8:	3b01      	subs	r3, #1
    35ea:	3601      	adds	r6, #1
    35ec:	60a3      	str	r3, [r4, #8]
    35ee:	2b00      	cmp	r3, #0
    35f0:	da04      	bge.n	35fc <_puts_r+0x70>
    35f2:	69a2      	ldr	r2, [r4, #24]
    35f4:	4293      	cmp	r3, r2
    35f6:	db16      	blt.n	3626 <_puts_r+0x9a>
    35f8:	290a      	cmp	r1, #10
    35fa:	d014      	beq.n	3626 <_puts_r+0x9a>
    35fc:	6823      	ldr	r3, [r4, #0]
    35fe:	1c5a      	adds	r2, r3, #1
    3600:	6022      	str	r2, [r4, #0]
    3602:	7019      	strb	r1, [r3, #0]
    3604:	7831      	ldrb	r1, [r6, #0]
    3606:	68a3      	ldr	r3, [r4, #8]
    3608:	2900      	cmp	r1, #0
    360a:	d1ed      	bne.n	35e8 <_puts_r+0x5c>
    360c:	3b01      	subs	r3, #1
    360e:	60a3      	str	r3, [r4, #8]
    3610:	2b00      	cmp	r3, #0
    3612:	da0f      	bge.n	3634 <_puts_r+0xa8>
    3614:	0022      	movs	r2, r4
    3616:	310a      	adds	r1, #10
    3618:	0028      	movs	r0, r5
    361a:	f000 f8e9 	bl	37f0 <__swbuf_r>
    361e:	1c43      	adds	r3, r0, #1
    3620:	d0d5      	beq.n	35ce <_puts_r+0x42>
    3622:	200a      	movs	r0, #10
    3624:	e7d5      	b.n	35d2 <_puts_r+0x46>
    3626:	0022      	movs	r2, r4
    3628:	0028      	movs	r0, r5
    362a:	f000 f8e1 	bl	37f0 <__swbuf_r>
    362e:	1c43      	adds	r3, r0, #1
    3630:	d1e8      	bne.n	3604 <_puts_r+0x78>
    3632:	e7cc      	b.n	35ce <_puts_r+0x42>
    3634:	200a      	movs	r0, #10
    3636:	6823      	ldr	r3, [r4, #0]
    3638:	1c5a      	adds	r2, r3, #1
    363a:	6022      	str	r2, [r4, #0]
    363c:	7018      	strb	r0, [r3, #0]
    363e:	e7c8      	b.n	35d2 <_puts_r+0x46>
    3640:	00004154 	.word	0x00004154
    3644:	00004174 	.word	0x00004174
    3648:	00004134 	.word	0x00004134

0000364c <puts>:
    364c:	b510      	push	{r4, lr}
    364e:	4b03      	ldr	r3, [pc, #12]	; (365c <puts+0x10>)
    3650:	0001      	movs	r1, r0
    3652:	6818      	ldr	r0, [r3, #0]
    3654:	f7ff ff9a 	bl	358c <_puts_r>
    3658:	bd10      	pop	{r4, pc}
    365a:	46c0      	nop			; (mov r8, r8)
    365c:	2000000c 	.word	0x2000000c

00003660 <_sbrk_r>:
    3660:	2300      	movs	r3, #0
    3662:	b570      	push	{r4, r5, r6, lr}
    3664:	4c06      	ldr	r4, [pc, #24]	; (3680 <_sbrk_r+0x20>)
    3666:	0005      	movs	r5, r0
    3668:	0008      	movs	r0, r1
    366a:	6023      	str	r3, [r4, #0]
    366c:	f7ff fa28 	bl	2ac0 <_sbrk>
    3670:	1c43      	adds	r3, r0, #1
    3672:	d103      	bne.n	367c <_sbrk_r+0x1c>
    3674:	6823      	ldr	r3, [r4, #0]
    3676:	2b00      	cmp	r3, #0
    3678:	d000      	beq.n	367c <_sbrk_r+0x1c>
    367a:	602b      	str	r3, [r5, #0]
    367c:	bd70      	pop	{r4, r5, r6, pc}
    367e:	46c0      	nop			; (mov r8, r8)
    3680:	20000614 	.word	0x20000614

00003684 <setbuf>:
    3684:	424a      	negs	r2, r1
    3686:	414a      	adcs	r2, r1
    3688:	2380      	movs	r3, #128	; 0x80
    368a:	b510      	push	{r4, lr}
    368c:	0052      	lsls	r2, r2, #1
    368e:	00db      	lsls	r3, r3, #3
    3690:	f000 f802 	bl	3698 <setvbuf>
    3694:	bd10      	pop	{r4, pc}
	...

00003698 <setvbuf>:
    3698:	b5f0      	push	{r4, r5, r6, r7, lr}
    369a:	001d      	movs	r5, r3
    369c:	4b4f      	ldr	r3, [pc, #316]	; (37dc <setvbuf+0x144>)
    369e:	b085      	sub	sp, #20
    36a0:	681e      	ldr	r6, [r3, #0]
    36a2:	0004      	movs	r4, r0
    36a4:	000f      	movs	r7, r1
    36a6:	9200      	str	r2, [sp, #0]
    36a8:	2e00      	cmp	r6, #0
    36aa:	d005      	beq.n	36b8 <setvbuf+0x20>
    36ac:	69b3      	ldr	r3, [r6, #24]
    36ae:	2b00      	cmp	r3, #0
    36b0:	d102      	bne.n	36b8 <setvbuf+0x20>
    36b2:	0030      	movs	r0, r6
    36b4:	f000 fa60 	bl	3b78 <__sinit>
    36b8:	4b49      	ldr	r3, [pc, #292]	; (37e0 <setvbuf+0x148>)
    36ba:	429c      	cmp	r4, r3
    36bc:	d150      	bne.n	3760 <setvbuf+0xc8>
    36be:	6874      	ldr	r4, [r6, #4]
    36c0:	9b00      	ldr	r3, [sp, #0]
    36c2:	2b02      	cmp	r3, #2
    36c4:	d005      	beq.n	36d2 <setvbuf+0x3a>
    36c6:	2b01      	cmp	r3, #1
    36c8:	d900      	bls.n	36cc <setvbuf+0x34>
    36ca:	e084      	b.n	37d6 <setvbuf+0x13e>
    36cc:	2d00      	cmp	r5, #0
    36ce:	da00      	bge.n	36d2 <setvbuf+0x3a>
    36d0:	e081      	b.n	37d6 <setvbuf+0x13e>
    36d2:	0021      	movs	r1, r4
    36d4:	0030      	movs	r0, r6
    36d6:	f000 f9e1 	bl	3a9c <_fflush_r>
    36da:	6b61      	ldr	r1, [r4, #52]	; 0x34
    36dc:	2900      	cmp	r1, #0
    36de:	d008      	beq.n	36f2 <setvbuf+0x5a>
    36e0:	0023      	movs	r3, r4
    36e2:	3344      	adds	r3, #68	; 0x44
    36e4:	4299      	cmp	r1, r3
    36e6:	d002      	beq.n	36ee <setvbuf+0x56>
    36e8:	0030      	movs	r0, r6
    36ea:	f7ff fea7 	bl	343c <_free_r>
    36ee:	2300      	movs	r3, #0
    36f0:	6363      	str	r3, [r4, #52]	; 0x34
    36f2:	2300      	movs	r3, #0
    36f4:	61a3      	str	r3, [r4, #24]
    36f6:	6063      	str	r3, [r4, #4]
    36f8:	89a3      	ldrh	r3, [r4, #12]
    36fa:	061b      	lsls	r3, r3, #24
    36fc:	d503      	bpl.n	3706 <setvbuf+0x6e>
    36fe:	6921      	ldr	r1, [r4, #16]
    3700:	0030      	movs	r0, r6
    3702:	f7ff fe9b 	bl	343c <_free_r>
    3706:	89a3      	ldrh	r3, [r4, #12]
    3708:	4a36      	ldr	r2, [pc, #216]	; (37e4 <setvbuf+0x14c>)
    370a:	4013      	ands	r3, r2
    370c:	81a3      	strh	r3, [r4, #12]
    370e:	9b00      	ldr	r3, [sp, #0]
    3710:	2b02      	cmp	r3, #2
    3712:	d05a      	beq.n	37ca <setvbuf+0x132>
    3714:	ab03      	add	r3, sp, #12
    3716:	aa02      	add	r2, sp, #8
    3718:	0021      	movs	r1, r4
    371a:	0030      	movs	r0, r6
    371c:	f000 fac2 	bl	3ca4 <__swhatbuf_r>
    3720:	89a3      	ldrh	r3, [r4, #12]
    3722:	4318      	orrs	r0, r3
    3724:	81a0      	strh	r0, [r4, #12]
    3726:	2d00      	cmp	r5, #0
    3728:	d124      	bne.n	3774 <setvbuf+0xdc>
    372a:	9d02      	ldr	r5, [sp, #8]
    372c:	0028      	movs	r0, r5
    372e:	f7ff fe69 	bl	3404 <malloc>
    3732:	9501      	str	r5, [sp, #4]
    3734:	1e07      	subs	r7, r0, #0
    3736:	d142      	bne.n	37be <setvbuf+0x126>
    3738:	9b02      	ldr	r3, [sp, #8]
    373a:	9301      	str	r3, [sp, #4]
    373c:	42ab      	cmp	r3, r5
    373e:	d139      	bne.n	37b4 <setvbuf+0x11c>
    3740:	2001      	movs	r0, #1
    3742:	4240      	negs	r0, r0
    3744:	2302      	movs	r3, #2
    3746:	89a2      	ldrh	r2, [r4, #12]
    3748:	4313      	orrs	r3, r2
    374a:	81a3      	strh	r3, [r4, #12]
    374c:	2300      	movs	r3, #0
    374e:	60a3      	str	r3, [r4, #8]
    3750:	0023      	movs	r3, r4
    3752:	3347      	adds	r3, #71	; 0x47
    3754:	6023      	str	r3, [r4, #0]
    3756:	6123      	str	r3, [r4, #16]
    3758:	2301      	movs	r3, #1
    375a:	6163      	str	r3, [r4, #20]
    375c:	b005      	add	sp, #20
    375e:	bdf0      	pop	{r4, r5, r6, r7, pc}
    3760:	4b21      	ldr	r3, [pc, #132]	; (37e8 <setvbuf+0x150>)
    3762:	429c      	cmp	r4, r3
    3764:	d101      	bne.n	376a <setvbuf+0xd2>
    3766:	68b4      	ldr	r4, [r6, #8]
    3768:	e7aa      	b.n	36c0 <setvbuf+0x28>
    376a:	4b20      	ldr	r3, [pc, #128]	; (37ec <setvbuf+0x154>)
    376c:	429c      	cmp	r4, r3
    376e:	d1a7      	bne.n	36c0 <setvbuf+0x28>
    3770:	68f4      	ldr	r4, [r6, #12]
    3772:	e7a5      	b.n	36c0 <setvbuf+0x28>
    3774:	2f00      	cmp	r7, #0
    3776:	d0d9      	beq.n	372c <setvbuf+0x94>
    3778:	69b3      	ldr	r3, [r6, #24]
    377a:	2b00      	cmp	r3, #0
    377c:	d102      	bne.n	3784 <setvbuf+0xec>
    377e:	0030      	movs	r0, r6
    3780:	f000 f9fa 	bl	3b78 <__sinit>
    3784:	9b00      	ldr	r3, [sp, #0]
    3786:	2b01      	cmp	r3, #1
    3788:	d103      	bne.n	3792 <setvbuf+0xfa>
    378a:	89a3      	ldrh	r3, [r4, #12]
    378c:	9a00      	ldr	r2, [sp, #0]
    378e:	431a      	orrs	r2, r3
    3790:	81a2      	strh	r2, [r4, #12]
    3792:	2008      	movs	r0, #8
    3794:	89a3      	ldrh	r3, [r4, #12]
    3796:	6027      	str	r7, [r4, #0]
    3798:	6127      	str	r7, [r4, #16]
    379a:	6165      	str	r5, [r4, #20]
    379c:	4018      	ands	r0, r3
    379e:	d018      	beq.n	37d2 <setvbuf+0x13a>
    37a0:	2001      	movs	r0, #1
    37a2:	4018      	ands	r0, r3
    37a4:	2300      	movs	r3, #0
    37a6:	4298      	cmp	r0, r3
    37a8:	d011      	beq.n	37ce <setvbuf+0x136>
    37aa:	426d      	negs	r5, r5
    37ac:	60a3      	str	r3, [r4, #8]
    37ae:	61a5      	str	r5, [r4, #24]
    37b0:	0018      	movs	r0, r3
    37b2:	e7d3      	b.n	375c <setvbuf+0xc4>
    37b4:	9801      	ldr	r0, [sp, #4]
    37b6:	f7ff fe25 	bl	3404 <malloc>
    37ba:	1e07      	subs	r7, r0, #0
    37bc:	d0c0      	beq.n	3740 <setvbuf+0xa8>
    37be:	2380      	movs	r3, #128	; 0x80
    37c0:	89a2      	ldrh	r2, [r4, #12]
    37c2:	9d01      	ldr	r5, [sp, #4]
    37c4:	4313      	orrs	r3, r2
    37c6:	81a3      	strh	r3, [r4, #12]
    37c8:	e7d6      	b.n	3778 <setvbuf+0xe0>
    37ca:	2000      	movs	r0, #0
    37cc:	e7ba      	b.n	3744 <setvbuf+0xac>
    37ce:	60a5      	str	r5, [r4, #8]
    37d0:	e7c4      	b.n	375c <setvbuf+0xc4>
    37d2:	60a0      	str	r0, [r4, #8]
    37d4:	e7c2      	b.n	375c <setvbuf+0xc4>
    37d6:	2001      	movs	r0, #1
    37d8:	4240      	negs	r0, r0
    37da:	e7bf      	b.n	375c <setvbuf+0xc4>
    37dc:	2000000c 	.word	0x2000000c
    37e0:	00004154 	.word	0x00004154
    37e4:	fffff35c 	.word	0xfffff35c
    37e8:	00004174 	.word	0x00004174
    37ec:	00004134 	.word	0x00004134

000037f0 <__swbuf_r>:
    37f0:	b5f8      	push	{r3, r4, r5, r6, r7, lr}
    37f2:	0005      	movs	r5, r0
    37f4:	000e      	movs	r6, r1
    37f6:	0014      	movs	r4, r2
    37f8:	2800      	cmp	r0, #0
    37fa:	d004      	beq.n	3806 <__swbuf_r+0x16>
    37fc:	6983      	ldr	r3, [r0, #24]
    37fe:	2b00      	cmp	r3, #0
    3800:	d101      	bne.n	3806 <__swbuf_r+0x16>
    3802:	f000 f9b9 	bl	3b78 <__sinit>
    3806:	4b22      	ldr	r3, [pc, #136]	; (3890 <__swbuf_r+0xa0>)
    3808:	429c      	cmp	r4, r3
    380a:	d12d      	bne.n	3868 <__swbuf_r+0x78>
    380c:	686c      	ldr	r4, [r5, #4]
    380e:	69a3      	ldr	r3, [r4, #24]
    3810:	60a3      	str	r3, [r4, #8]
    3812:	89a3      	ldrh	r3, [r4, #12]
    3814:	071b      	lsls	r3, r3, #28
    3816:	d531      	bpl.n	387c <__swbuf_r+0x8c>
    3818:	6923      	ldr	r3, [r4, #16]
    381a:	2b00      	cmp	r3, #0
    381c:	d02e      	beq.n	387c <__swbuf_r+0x8c>
    381e:	6823      	ldr	r3, [r4, #0]
    3820:	6922      	ldr	r2, [r4, #16]
    3822:	b2f7      	uxtb	r7, r6
    3824:	1a98      	subs	r0, r3, r2
    3826:	6963      	ldr	r3, [r4, #20]
    3828:	b2f6      	uxtb	r6, r6
    382a:	4298      	cmp	r0, r3
    382c:	db05      	blt.n	383a <__swbuf_r+0x4a>
    382e:	0021      	movs	r1, r4
    3830:	0028      	movs	r0, r5
    3832:	f000 f933 	bl	3a9c <_fflush_r>
    3836:	2800      	cmp	r0, #0
    3838:	d126      	bne.n	3888 <__swbuf_r+0x98>
    383a:	68a3      	ldr	r3, [r4, #8]
    383c:	3001      	adds	r0, #1
    383e:	3b01      	subs	r3, #1
    3840:	60a3      	str	r3, [r4, #8]
    3842:	6823      	ldr	r3, [r4, #0]
    3844:	1c5a      	adds	r2, r3, #1
    3846:	6022      	str	r2, [r4, #0]
    3848:	701f      	strb	r7, [r3, #0]
    384a:	6963      	ldr	r3, [r4, #20]
    384c:	4298      	cmp	r0, r3
    384e:	d004      	beq.n	385a <__swbuf_r+0x6a>
    3850:	89a3      	ldrh	r3, [r4, #12]
    3852:	07db      	lsls	r3, r3, #31
    3854:	d51a      	bpl.n	388c <__swbuf_r+0x9c>
    3856:	2e0a      	cmp	r6, #10
    3858:	d118      	bne.n	388c <__swbuf_r+0x9c>
    385a:	0021      	movs	r1, r4
    385c:	0028      	movs	r0, r5
    385e:	f000 f91d 	bl	3a9c <_fflush_r>
    3862:	2800      	cmp	r0, #0
    3864:	d012      	beq.n	388c <__swbuf_r+0x9c>
    3866:	e00f      	b.n	3888 <__swbuf_r+0x98>
    3868:	4b0a      	ldr	r3, [pc, #40]	; (3894 <__swbuf_r+0xa4>)
    386a:	429c      	cmp	r4, r3
    386c:	d101      	bne.n	3872 <__swbuf_r+0x82>
    386e:	68ac      	ldr	r4, [r5, #8]
    3870:	e7cd      	b.n	380e <__swbuf_r+0x1e>
    3872:	4b09      	ldr	r3, [pc, #36]	; (3898 <__swbuf_r+0xa8>)
    3874:	429c      	cmp	r4, r3
    3876:	d1ca      	bne.n	380e <__swbuf_r+0x1e>
    3878:	68ec      	ldr	r4, [r5, #12]
    387a:	e7c8      	b.n	380e <__swbuf_r+0x1e>
    387c:	0021      	movs	r1, r4
    387e:	0028      	movs	r0, r5
    3880:	f000 f80c 	bl	389c <__swsetup_r>
    3884:	2800      	cmp	r0, #0
    3886:	d0ca      	beq.n	381e <__swbuf_r+0x2e>
    3888:	2601      	movs	r6, #1
    388a:	4276      	negs	r6, r6
    388c:	0030      	movs	r0, r6
    388e:	bdf8      	pop	{r3, r4, r5, r6, r7, pc}
    3890:	00004154 	.word	0x00004154
    3894:	00004174 	.word	0x00004174
    3898:	00004134 	.word	0x00004134

0000389c <__swsetup_r>:
    389c:	4b36      	ldr	r3, [pc, #216]	; (3978 <__swsetup_r+0xdc>)
    389e:	b570      	push	{r4, r5, r6, lr}
    38a0:	681d      	ldr	r5, [r3, #0]
    38a2:	0006      	movs	r6, r0
    38a4:	000c      	movs	r4, r1
    38a6:	2d00      	cmp	r5, #0
    38a8:	d005      	beq.n	38b6 <__swsetup_r+0x1a>
    38aa:	69ab      	ldr	r3, [r5, #24]
    38ac:	2b00      	cmp	r3, #0
    38ae:	d102      	bne.n	38b6 <__swsetup_r+0x1a>
    38b0:	0028      	movs	r0, r5
    38b2:	f000 f961 	bl	3b78 <__sinit>
    38b6:	4b31      	ldr	r3, [pc, #196]	; (397c <__swsetup_r+0xe0>)
    38b8:	429c      	cmp	r4, r3
    38ba:	d10f      	bne.n	38dc <__swsetup_r+0x40>
    38bc:	686c      	ldr	r4, [r5, #4]
    38be:	230c      	movs	r3, #12
    38c0:	5ee2      	ldrsh	r2, [r4, r3]
    38c2:	b293      	uxth	r3, r2
    38c4:	0719      	lsls	r1, r3, #28
    38c6:	d42d      	bmi.n	3924 <__swsetup_r+0x88>
    38c8:	06d9      	lsls	r1, r3, #27
    38ca:	d411      	bmi.n	38f0 <__swsetup_r+0x54>
    38cc:	2309      	movs	r3, #9
    38ce:	2001      	movs	r0, #1
    38d0:	6033      	str	r3, [r6, #0]
    38d2:	3337      	adds	r3, #55	; 0x37
    38d4:	4313      	orrs	r3, r2
    38d6:	81a3      	strh	r3, [r4, #12]
    38d8:	4240      	negs	r0, r0
    38da:	bd70      	pop	{r4, r5, r6, pc}
    38dc:	4b28      	ldr	r3, [pc, #160]	; (3980 <__swsetup_r+0xe4>)
    38de:	429c      	cmp	r4, r3
    38e0:	d101      	bne.n	38e6 <__swsetup_r+0x4a>
    38e2:	68ac      	ldr	r4, [r5, #8]
    38e4:	e7eb      	b.n	38be <__swsetup_r+0x22>
    38e6:	4b27      	ldr	r3, [pc, #156]	; (3984 <__swsetup_r+0xe8>)
    38e8:	429c      	cmp	r4, r3
    38ea:	d1e8      	bne.n	38be <__swsetup_r+0x22>
    38ec:	68ec      	ldr	r4, [r5, #12]
    38ee:	e7e6      	b.n	38be <__swsetup_r+0x22>
    38f0:	075b      	lsls	r3, r3, #29
    38f2:	d513      	bpl.n	391c <__swsetup_r+0x80>
    38f4:	6b61      	ldr	r1, [r4, #52]	; 0x34
    38f6:	2900      	cmp	r1, #0
    38f8:	d008      	beq.n	390c <__swsetup_r+0x70>
    38fa:	0023      	movs	r3, r4
    38fc:	3344      	adds	r3, #68	; 0x44
    38fe:	4299      	cmp	r1, r3
    3900:	d002      	beq.n	3908 <__swsetup_r+0x6c>
    3902:	0030      	movs	r0, r6
    3904:	f7ff fd9a 	bl	343c <_free_r>
    3908:	2300      	movs	r3, #0
    390a:	6363      	str	r3, [r4, #52]	; 0x34
    390c:	2224      	movs	r2, #36	; 0x24
    390e:	89a3      	ldrh	r3, [r4, #12]
    3910:	4393      	bics	r3, r2
    3912:	81a3      	strh	r3, [r4, #12]
    3914:	2300      	movs	r3, #0
    3916:	6063      	str	r3, [r4, #4]
    3918:	6923      	ldr	r3, [r4, #16]
    391a:	6023      	str	r3, [r4, #0]
    391c:	2308      	movs	r3, #8
    391e:	89a2      	ldrh	r2, [r4, #12]
    3920:	4313      	orrs	r3, r2
    3922:	81a3      	strh	r3, [r4, #12]
    3924:	6923      	ldr	r3, [r4, #16]
    3926:	2b00      	cmp	r3, #0
    3928:	d10b      	bne.n	3942 <__swsetup_r+0xa6>
    392a:	21a0      	movs	r1, #160	; 0xa0
    392c:	2280      	movs	r2, #128	; 0x80
    392e:	89a3      	ldrh	r3, [r4, #12]
    3930:	0089      	lsls	r1, r1, #2
    3932:	0092      	lsls	r2, r2, #2
    3934:	400b      	ands	r3, r1
    3936:	4293      	cmp	r3, r2
    3938:	d003      	beq.n	3942 <__swsetup_r+0xa6>
    393a:	0021      	movs	r1, r4
    393c:	0030      	movs	r0, r6
    393e:	f000 f9d9 	bl	3cf4 <__smakebuf_r>
    3942:	2301      	movs	r3, #1
    3944:	89a2      	ldrh	r2, [r4, #12]
    3946:	4013      	ands	r3, r2
    3948:	d011      	beq.n	396e <__swsetup_r+0xd2>
    394a:	2300      	movs	r3, #0
    394c:	60a3      	str	r3, [r4, #8]
    394e:	6963      	ldr	r3, [r4, #20]
    3950:	425b      	negs	r3, r3
    3952:	61a3      	str	r3, [r4, #24]
    3954:	2000      	movs	r0, #0
    3956:	6923      	ldr	r3, [r4, #16]
    3958:	4283      	cmp	r3, r0
    395a:	d1be      	bne.n	38da <__swsetup_r+0x3e>
    395c:	230c      	movs	r3, #12
    395e:	5ee2      	ldrsh	r2, [r4, r3]
    3960:	0613      	lsls	r3, r2, #24
    3962:	d5ba      	bpl.n	38da <__swsetup_r+0x3e>
    3964:	2340      	movs	r3, #64	; 0x40
    3966:	4313      	orrs	r3, r2
    3968:	81a3      	strh	r3, [r4, #12]
    396a:	3801      	subs	r0, #1
    396c:	e7b5      	b.n	38da <__swsetup_r+0x3e>
    396e:	0792      	lsls	r2, r2, #30
    3970:	d400      	bmi.n	3974 <__swsetup_r+0xd8>
    3972:	6963      	ldr	r3, [r4, #20]
    3974:	60a3      	str	r3, [r4, #8]
    3976:	e7ed      	b.n	3954 <__swsetup_r+0xb8>
    3978:	2000000c 	.word	0x2000000c
    397c:	00004154 	.word	0x00004154
    3980:	00004174 	.word	0x00004174
    3984:	00004134 	.word	0x00004134

00003988 <__sflush_r>:
    3988:	b5f7      	push	{r0, r1, r2, r4, r5, r6, r7, lr}
    398a:	898a      	ldrh	r2, [r1, #12]
    398c:	0005      	movs	r5, r0
    398e:	000c      	movs	r4, r1
    3990:	0713      	lsls	r3, r2, #28
    3992:	d460      	bmi.n	3a56 <__sflush_r+0xce>
    3994:	684b      	ldr	r3, [r1, #4]
    3996:	2b00      	cmp	r3, #0
    3998:	dc04      	bgt.n	39a4 <__sflush_r+0x1c>
    399a:	6c0b      	ldr	r3, [r1, #64]	; 0x40
    399c:	2b00      	cmp	r3, #0
    399e:	dc01      	bgt.n	39a4 <__sflush_r+0x1c>
    39a0:	2000      	movs	r0, #0
    39a2:	bdfe      	pop	{r1, r2, r3, r4, r5, r6, r7, pc}
    39a4:	6ae7      	ldr	r7, [r4, #44]	; 0x2c
    39a6:	2f00      	cmp	r7, #0
    39a8:	d0fa      	beq.n	39a0 <__sflush_r+0x18>
    39aa:	2300      	movs	r3, #0
    39ac:	682e      	ldr	r6, [r5, #0]
    39ae:	602b      	str	r3, [r5, #0]
    39b0:	2380      	movs	r3, #128	; 0x80
    39b2:	015b      	lsls	r3, r3, #5
    39b4:	401a      	ands	r2, r3
    39b6:	d034      	beq.n	3a22 <__sflush_r+0x9a>
    39b8:	6d60      	ldr	r0, [r4, #84]	; 0x54
    39ba:	89a3      	ldrh	r3, [r4, #12]
    39bc:	075b      	lsls	r3, r3, #29
    39be:	d506      	bpl.n	39ce <__sflush_r+0x46>
    39c0:	6863      	ldr	r3, [r4, #4]
    39c2:	1ac0      	subs	r0, r0, r3
    39c4:	6b63      	ldr	r3, [r4, #52]	; 0x34
    39c6:	2b00      	cmp	r3, #0
    39c8:	d001      	beq.n	39ce <__sflush_r+0x46>
    39ca:	6c23      	ldr	r3, [r4, #64]	; 0x40
    39cc:	1ac0      	subs	r0, r0, r3
    39ce:	0002      	movs	r2, r0
    39d0:	6a21      	ldr	r1, [r4, #32]
    39d2:	2300      	movs	r3, #0
    39d4:	0028      	movs	r0, r5
    39d6:	6ae7      	ldr	r7, [r4, #44]	; 0x2c
    39d8:	47b8      	blx	r7
    39da:	89a1      	ldrh	r1, [r4, #12]
    39dc:	1c43      	adds	r3, r0, #1
    39de:	d106      	bne.n	39ee <__sflush_r+0x66>
    39e0:	682b      	ldr	r3, [r5, #0]
    39e2:	2b1d      	cmp	r3, #29
    39e4:	d831      	bhi.n	3a4a <__sflush_r+0xc2>
    39e6:	4a2c      	ldr	r2, [pc, #176]	; (3a98 <__sflush_r+0x110>)
    39e8:	40da      	lsrs	r2, r3
    39ea:	07d3      	lsls	r3, r2, #31
    39ec:	d52d      	bpl.n	3a4a <__sflush_r+0xc2>
    39ee:	2300      	movs	r3, #0
    39f0:	6063      	str	r3, [r4, #4]
    39f2:	6923      	ldr	r3, [r4, #16]
    39f4:	6023      	str	r3, [r4, #0]
    39f6:	04cb      	lsls	r3, r1, #19
    39f8:	d505      	bpl.n	3a06 <__sflush_r+0x7e>
    39fa:	1c43      	adds	r3, r0, #1
    39fc:	d102      	bne.n	3a04 <__sflush_r+0x7c>
    39fe:	682b      	ldr	r3, [r5, #0]
    3a00:	2b00      	cmp	r3, #0
    3a02:	d100      	bne.n	3a06 <__sflush_r+0x7e>
    3a04:	6560      	str	r0, [r4, #84]	; 0x54
    3a06:	6b61      	ldr	r1, [r4, #52]	; 0x34
    3a08:	602e      	str	r6, [r5, #0]
    3a0a:	2900      	cmp	r1, #0
    3a0c:	d0c8      	beq.n	39a0 <__sflush_r+0x18>
    3a0e:	0023      	movs	r3, r4
    3a10:	3344      	adds	r3, #68	; 0x44
    3a12:	4299      	cmp	r1, r3
    3a14:	d002      	beq.n	3a1c <__sflush_r+0x94>
    3a16:	0028      	movs	r0, r5
    3a18:	f7ff fd10 	bl	343c <_free_r>
    3a1c:	2000      	movs	r0, #0
    3a1e:	6360      	str	r0, [r4, #52]	; 0x34
    3a20:	e7bf      	b.n	39a2 <__sflush_r+0x1a>
    3a22:	2301      	movs	r3, #1
    3a24:	6a21      	ldr	r1, [r4, #32]
    3a26:	0028      	movs	r0, r5
    3a28:	47b8      	blx	r7
    3a2a:	1c43      	adds	r3, r0, #1
    3a2c:	d1c5      	bne.n	39ba <__sflush_r+0x32>
    3a2e:	682b      	ldr	r3, [r5, #0]
    3a30:	2b00      	cmp	r3, #0
    3a32:	d0c2      	beq.n	39ba <__sflush_r+0x32>
    3a34:	2b1d      	cmp	r3, #29
    3a36:	d001      	beq.n	3a3c <__sflush_r+0xb4>
    3a38:	2b16      	cmp	r3, #22
    3a3a:	d101      	bne.n	3a40 <__sflush_r+0xb8>
    3a3c:	602e      	str	r6, [r5, #0]
    3a3e:	e7af      	b.n	39a0 <__sflush_r+0x18>
    3a40:	2340      	movs	r3, #64	; 0x40
    3a42:	89a2      	ldrh	r2, [r4, #12]
    3a44:	4313      	orrs	r3, r2
    3a46:	81a3      	strh	r3, [r4, #12]
    3a48:	e7ab      	b.n	39a2 <__sflush_r+0x1a>
    3a4a:	2340      	movs	r3, #64	; 0x40
    3a4c:	430b      	orrs	r3, r1
    3a4e:	2001      	movs	r0, #1
    3a50:	81a3      	strh	r3, [r4, #12]
    3a52:	4240      	negs	r0, r0
    3a54:	e7a5      	b.n	39a2 <__sflush_r+0x1a>
    3a56:	690f      	ldr	r7, [r1, #16]
    3a58:	2f00      	cmp	r7, #0
    3a5a:	d0a1      	beq.n	39a0 <__sflush_r+0x18>
    3a5c:	680b      	ldr	r3, [r1, #0]
    3a5e:	600f      	str	r7, [r1, #0]
    3a60:	1bdb      	subs	r3, r3, r7
    3a62:	9301      	str	r3, [sp, #4]
    3a64:	2300      	movs	r3, #0
    3a66:	0792      	lsls	r2, r2, #30
    3a68:	d100      	bne.n	3a6c <__sflush_r+0xe4>
    3a6a:	694b      	ldr	r3, [r1, #20]
    3a6c:	60a3      	str	r3, [r4, #8]
    3a6e:	9b01      	ldr	r3, [sp, #4]
    3a70:	2b00      	cmp	r3, #0
    3a72:	dc00      	bgt.n	3a76 <__sflush_r+0xee>
    3a74:	e794      	b.n	39a0 <__sflush_r+0x18>
    3a76:	9b01      	ldr	r3, [sp, #4]
    3a78:	003a      	movs	r2, r7
    3a7a:	6a21      	ldr	r1, [r4, #32]
    3a7c:	0028      	movs	r0, r5
    3a7e:	6aa6      	ldr	r6, [r4, #40]	; 0x28
    3a80:	47b0      	blx	r6
    3a82:	2800      	cmp	r0, #0
    3a84:	dc03      	bgt.n	3a8e <__sflush_r+0x106>
    3a86:	2340      	movs	r3, #64	; 0x40
    3a88:	89a2      	ldrh	r2, [r4, #12]
    3a8a:	4313      	orrs	r3, r2
    3a8c:	e7df      	b.n	3a4e <__sflush_r+0xc6>
    3a8e:	9b01      	ldr	r3, [sp, #4]
    3a90:	183f      	adds	r7, r7, r0
    3a92:	1a1b      	subs	r3, r3, r0
    3a94:	9301      	str	r3, [sp, #4]
    3a96:	e7ea      	b.n	3a6e <__sflush_r+0xe6>
    3a98:	20400001 	.word	0x20400001

00003a9c <_fflush_r>:
    3a9c:	690b      	ldr	r3, [r1, #16]
    3a9e:	b570      	push	{r4, r5, r6, lr}
    3aa0:	0005      	movs	r5, r0
    3aa2:	000c      	movs	r4, r1
    3aa4:	2b00      	cmp	r3, #0
    3aa6:	d101      	bne.n	3aac <_fflush_r+0x10>
    3aa8:	2000      	movs	r0, #0
    3aaa:	bd70      	pop	{r4, r5, r6, pc}
    3aac:	2800      	cmp	r0, #0
    3aae:	d004      	beq.n	3aba <_fflush_r+0x1e>
    3ab0:	6983      	ldr	r3, [r0, #24]
    3ab2:	2b00      	cmp	r3, #0
    3ab4:	d101      	bne.n	3aba <_fflush_r+0x1e>
    3ab6:	f000 f85f 	bl	3b78 <__sinit>
    3aba:	4b0b      	ldr	r3, [pc, #44]	; (3ae8 <_fflush_r+0x4c>)
    3abc:	429c      	cmp	r4, r3
    3abe:	d109      	bne.n	3ad4 <_fflush_r+0x38>
    3ac0:	686c      	ldr	r4, [r5, #4]
    3ac2:	220c      	movs	r2, #12
    3ac4:	5ea3      	ldrsh	r3, [r4, r2]
    3ac6:	2b00      	cmp	r3, #0
    3ac8:	d0ee      	beq.n	3aa8 <_fflush_r+0xc>
    3aca:	0021      	movs	r1, r4
    3acc:	0028      	movs	r0, r5
    3ace:	f7ff ff5b 	bl	3988 <__sflush_r>
    3ad2:	e7ea      	b.n	3aaa <_fflush_r+0xe>
    3ad4:	4b05      	ldr	r3, [pc, #20]	; (3aec <_fflush_r+0x50>)
    3ad6:	429c      	cmp	r4, r3
    3ad8:	d101      	bne.n	3ade <_fflush_r+0x42>
    3ada:	68ac      	ldr	r4, [r5, #8]
    3adc:	e7f1      	b.n	3ac2 <_fflush_r+0x26>
    3ade:	4b04      	ldr	r3, [pc, #16]	; (3af0 <_fflush_r+0x54>)
    3ae0:	429c      	cmp	r4, r3
    3ae2:	d1ee      	bne.n	3ac2 <_fflush_r+0x26>
    3ae4:	68ec      	ldr	r4, [r5, #12]
    3ae6:	e7ec      	b.n	3ac2 <_fflush_r+0x26>
    3ae8:	00004154 	.word	0x00004154
    3aec:	00004174 	.word	0x00004174
    3af0:	00004134 	.word	0x00004134

00003af4 <_cleanup_r>:
    3af4:	b510      	push	{r4, lr}
    3af6:	4902      	ldr	r1, [pc, #8]	; (3b00 <_cleanup_r+0xc>)
    3af8:	f000 f8b2 	bl	3c60 <_fwalk_reent>
    3afc:	bd10      	pop	{r4, pc}
    3afe:	46c0      	nop			; (mov r8, r8)
    3b00:	00003a9d 	.word	0x00003a9d

00003b04 <std.isra.0>:
    3b04:	2300      	movs	r3, #0
    3b06:	b510      	push	{r4, lr}
    3b08:	0004      	movs	r4, r0
    3b0a:	6003      	str	r3, [r0, #0]
    3b0c:	6043      	str	r3, [r0, #4]
    3b0e:	6083      	str	r3, [r0, #8]
    3b10:	8181      	strh	r1, [r0, #12]
    3b12:	6643      	str	r3, [r0, #100]	; 0x64
    3b14:	81c2      	strh	r2, [r0, #14]
    3b16:	6103      	str	r3, [r0, #16]
    3b18:	6143      	str	r3, [r0, #20]
    3b1a:	6183      	str	r3, [r0, #24]
    3b1c:	0019      	movs	r1, r3
    3b1e:	2208      	movs	r2, #8
    3b20:	305c      	adds	r0, #92	; 0x5c
    3b22:	f7ff fc82 	bl	342a <memset>
    3b26:	4b05      	ldr	r3, [pc, #20]	; (3b3c <std.isra.0+0x38>)
    3b28:	6224      	str	r4, [r4, #32]
    3b2a:	6263      	str	r3, [r4, #36]	; 0x24
    3b2c:	4b04      	ldr	r3, [pc, #16]	; (3b40 <std.isra.0+0x3c>)
    3b2e:	62a3      	str	r3, [r4, #40]	; 0x28
    3b30:	4b04      	ldr	r3, [pc, #16]	; (3b44 <std.isra.0+0x40>)
    3b32:	62e3      	str	r3, [r4, #44]	; 0x2c
    3b34:	4b04      	ldr	r3, [pc, #16]	; (3b48 <std.isra.0+0x44>)
    3b36:	6323      	str	r3, [r4, #48]	; 0x30
    3b38:	bd10      	pop	{r4, pc}
    3b3a:	46c0      	nop			; (mov r8, r8)
    3b3c:	00003d81 	.word	0x00003d81
    3b40:	00003da9 	.word	0x00003da9
    3b44:	00003de1 	.word	0x00003de1
    3b48:	00003e0d 	.word	0x00003e0d

00003b4c <__sfmoreglue>:
    3b4c:	b570      	push	{r4, r5, r6, lr}
    3b4e:	2568      	movs	r5, #104	; 0x68
    3b50:	1e4a      	subs	r2, r1, #1
    3b52:	4355      	muls	r5, r2
    3b54:	000e      	movs	r6, r1
    3b56:	0029      	movs	r1, r5
    3b58:	3174      	adds	r1, #116	; 0x74
    3b5a:	f7ff fcb9 	bl	34d0 <_malloc_r>
    3b5e:	1e04      	subs	r4, r0, #0
    3b60:	d008      	beq.n	3b74 <__sfmoreglue+0x28>
    3b62:	2100      	movs	r1, #0
    3b64:	002a      	movs	r2, r5
    3b66:	6001      	str	r1, [r0, #0]
    3b68:	6046      	str	r6, [r0, #4]
    3b6a:	300c      	adds	r0, #12
    3b6c:	60a0      	str	r0, [r4, #8]
    3b6e:	3268      	adds	r2, #104	; 0x68
    3b70:	f7ff fc5b 	bl	342a <memset>
    3b74:	0020      	movs	r0, r4
    3b76:	bd70      	pop	{r4, r5, r6, pc}

00003b78 <__sinit>:
    3b78:	6983      	ldr	r3, [r0, #24]
    3b7a:	b513      	push	{r0, r1, r4, lr}
    3b7c:	0004      	movs	r4, r0
    3b7e:	2b00      	cmp	r3, #0
    3b80:	d128      	bne.n	3bd4 <__sinit+0x5c>
    3b82:	6483      	str	r3, [r0, #72]	; 0x48
    3b84:	64c3      	str	r3, [r0, #76]	; 0x4c
    3b86:	6503      	str	r3, [r0, #80]	; 0x50
    3b88:	4b13      	ldr	r3, [pc, #76]	; (3bd8 <__sinit+0x60>)
    3b8a:	4a14      	ldr	r2, [pc, #80]	; (3bdc <__sinit+0x64>)
    3b8c:	681b      	ldr	r3, [r3, #0]
    3b8e:	6282      	str	r2, [r0, #40]	; 0x28
    3b90:	9301      	str	r3, [sp, #4]
    3b92:	4298      	cmp	r0, r3
    3b94:	d101      	bne.n	3b9a <__sinit+0x22>
    3b96:	2301      	movs	r3, #1
    3b98:	6183      	str	r3, [r0, #24]
    3b9a:	0020      	movs	r0, r4
    3b9c:	f000 f820 	bl	3be0 <__sfp>
    3ba0:	6060      	str	r0, [r4, #4]
    3ba2:	0020      	movs	r0, r4
    3ba4:	f000 f81c 	bl	3be0 <__sfp>
    3ba8:	60a0      	str	r0, [r4, #8]
    3baa:	0020      	movs	r0, r4
    3bac:	f000 f818 	bl	3be0 <__sfp>
    3bb0:	2200      	movs	r2, #0
    3bb2:	60e0      	str	r0, [r4, #12]
    3bb4:	2104      	movs	r1, #4
    3bb6:	6860      	ldr	r0, [r4, #4]
    3bb8:	f7ff ffa4 	bl	3b04 <std.isra.0>
    3bbc:	2201      	movs	r2, #1
    3bbe:	2109      	movs	r1, #9
    3bc0:	68a0      	ldr	r0, [r4, #8]
    3bc2:	f7ff ff9f 	bl	3b04 <std.isra.0>
    3bc6:	2202      	movs	r2, #2
    3bc8:	2112      	movs	r1, #18
    3bca:	68e0      	ldr	r0, [r4, #12]
    3bcc:	f7ff ff9a 	bl	3b04 <std.isra.0>
    3bd0:	2301      	movs	r3, #1
    3bd2:	61a3      	str	r3, [r4, #24]
    3bd4:	bd13      	pop	{r0, r1, r4, pc}
    3bd6:	46c0      	nop			; (mov r8, r8)
    3bd8:	00004130 	.word	0x00004130
    3bdc:	00003af5 	.word	0x00003af5

00003be0 <__sfp>:
    3be0:	b5f8      	push	{r3, r4, r5, r6, r7, lr}
    3be2:	4b1e      	ldr	r3, [pc, #120]	; (3c5c <__sfp+0x7c>)
    3be4:	0007      	movs	r7, r0
    3be6:	681e      	ldr	r6, [r3, #0]
    3be8:	69b3      	ldr	r3, [r6, #24]
    3bea:	2b00      	cmp	r3, #0
    3bec:	d102      	bne.n	3bf4 <__sfp+0x14>
    3bee:	0030      	movs	r0, r6
    3bf0:	f7ff ffc2 	bl	3b78 <__sinit>
    3bf4:	3648      	adds	r6, #72	; 0x48
    3bf6:	68b4      	ldr	r4, [r6, #8]
    3bf8:	6873      	ldr	r3, [r6, #4]
    3bfa:	3b01      	subs	r3, #1
    3bfc:	d504      	bpl.n	3c08 <__sfp+0x28>
    3bfe:	6833      	ldr	r3, [r6, #0]
    3c00:	2b00      	cmp	r3, #0
    3c02:	d007      	beq.n	3c14 <__sfp+0x34>
    3c04:	6836      	ldr	r6, [r6, #0]
    3c06:	e7f6      	b.n	3bf6 <__sfp+0x16>
    3c08:	220c      	movs	r2, #12
    3c0a:	5ea5      	ldrsh	r5, [r4, r2]
    3c0c:	2d00      	cmp	r5, #0
    3c0e:	d00d      	beq.n	3c2c <__sfp+0x4c>
    3c10:	3468      	adds	r4, #104	; 0x68
    3c12:	e7f2      	b.n	3bfa <__sfp+0x1a>
    3c14:	2104      	movs	r1, #4
    3c16:	0038      	movs	r0, r7
    3c18:	f7ff ff98 	bl	3b4c <__sfmoreglue>
    3c1c:	6030      	str	r0, [r6, #0]
    3c1e:	2800      	cmp	r0, #0
    3c20:	d1f0      	bne.n	3c04 <__sfp+0x24>
    3c22:	230c      	movs	r3, #12
    3c24:	0004      	movs	r4, r0
    3c26:	603b      	str	r3, [r7, #0]
    3c28:	0020      	movs	r0, r4
    3c2a:	bdf8      	pop	{r3, r4, r5, r6, r7, pc}
    3c2c:	2301      	movs	r3, #1
    3c2e:	0020      	movs	r0, r4
    3c30:	425b      	negs	r3, r3
    3c32:	81e3      	strh	r3, [r4, #14]
    3c34:	3302      	adds	r3, #2
    3c36:	81a3      	strh	r3, [r4, #12]
    3c38:	6665      	str	r5, [r4, #100]	; 0x64
    3c3a:	6025      	str	r5, [r4, #0]
    3c3c:	60a5      	str	r5, [r4, #8]
    3c3e:	6065      	str	r5, [r4, #4]
    3c40:	6125      	str	r5, [r4, #16]
    3c42:	6165      	str	r5, [r4, #20]
    3c44:	61a5      	str	r5, [r4, #24]
    3c46:	2208      	movs	r2, #8
    3c48:	0029      	movs	r1, r5
    3c4a:	305c      	adds	r0, #92	; 0x5c
    3c4c:	f7ff fbed 	bl	342a <memset>
    3c50:	6365      	str	r5, [r4, #52]	; 0x34
    3c52:	63a5      	str	r5, [r4, #56]	; 0x38
    3c54:	64a5      	str	r5, [r4, #72]	; 0x48
    3c56:	64e5      	str	r5, [r4, #76]	; 0x4c
    3c58:	e7e6      	b.n	3c28 <__sfp+0x48>
    3c5a:	46c0      	nop			; (mov r8, r8)
    3c5c:	00004130 	.word	0x00004130

00003c60 <_fwalk_reent>:
    3c60:	b5f7      	push	{r0, r1, r2, r4, r5, r6, r7, lr}
    3c62:	0004      	movs	r4, r0
    3c64:	0007      	movs	r7, r0
    3c66:	2600      	movs	r6, #0
    3c68:	9101      	str	r1, [sp, #4]
    3c6a:	3448      	adds	r4, #72	; 0x48
    3c6c:	2c00      	cmp	r4, #0
    3c6e:	d101      	bne.n	3c74 <_fwalk_reent+0x14>
    3c70:	0030      	movs	r0, r6
    3c72:	bdfe      	pop	{r1, r2, r3, r4, r5, r6, r7, pc}
    3c74:	6863      	ldr	r3, [r4, #4]
    3c76:	68a5      	ldr	r5, [r4, #8]
    3c78:	9300      	str	r3, [sp, #0]
    3c7a:	9b00      	ldr	r3, [sp, #0]
    3c7c:	3b01      	subs	r3, #1
    3c7e:	9300      	str	r3, [sp, #0]
    3c80:	d501      	bpl.n	3c86 <_fwalk_reent+0x26>
    3c82:	6824      	ldr	r4, [r4, #0]
    3c84:	e7f2      	b.n	3c6c <_fwalk_reent+0xc>
    3c86:	89ab      	ldrh	r3, [r5, #12]
    3c88:	2b01      	cmp	r3, #1
    3c8a:	d908      	bls.n	3c9e <_fwalk_reent+0x3e>
    3c8c:	220e      	movs	r2, #14
    3c8e:	5eab      	ldrsh	r3, [r5, r2]
    3c90:	3301      	adds	r3, #1
    3c92:	d004      	beq.n	3c9e <_fwalk_reent+0x3e>
    3c94:	0029      	movs	r1, r5
    3c96:	0038      	movs	r0, r7
    3c98:	9b01      	ldr	r3, [sp, #4]
    3c9a:	4798      	blx	r3
    3c9c:	4306      	orrs	r6, r0
    3c9e:	3568      	adds	r5, #104	; 0x68
    3ca0:	e7eb      	b.n	3c7a <_fwalk_reent+0x1a>
	...

00003ca4 <__swhatbuf_r>:
    3ca4:	b570      	push	{r4, r5, r6, lr}
    3ca6:	000e      	movs	r6, r1
    3ca8:	001d      	movs	r5, r3
    3caa:	230e      	movs	r3, #14
    3cac:	5ec9      	ldrsh	r1, [r1, r3]
    3cae:	b090      	sub	sp, #64	; 0x40
    3cb0:	0014      	movs	r4, r2
    3cb2:	2900      	cmp	r1, #0
    3cb4:	da07      	bge.n	3cc6 <__swhatbuf_r+0x22>
    3cb6:	2300      	movs	r3, #0
    3cb8:	602b      	str	r3, [r5, #0]
    3cba:	89b3      	ldrh	r3, [r6, #12]
    3cbc:	061b      	lsls	r3, r3, #24
    3cbe:	d411      	bmi.n	3ce4 <__swhatbuf_r+0x40>
    3cc0:	2380      	movs	r3, #128	; 0x80
    3cc2:	00db      	lsls	r3, r3, #3
    3cc4:	e00f      	b.n	3ce6 <__swhatbuf_r+0x42>
    3cc6:	aa01      	add	r2, sp, #4
    3cc8:	f000 f8cc 	bl	3e64 <_fstat_r>
    3ccc:	2800      	cmp	r0, #0
    3cce:	dbf2      	blt.n	3cb6 <__swhatbuf_r+0x12>
    3cd0:	22f0      	movs	r2, #240	; 0xf0
    3cd2:	9b02      	ldr	r3, [sp, #8]
    3cd4:	0212      	lsls	r2, r2, #8
    3cd6:	4013      	ands	r3, r2
    3cd8:	4a05      	ldr	r2, [pc, #20]	; (3cf0 <__swhatbuf_r+0x4c>)
    3cda:	189b      	adds	r3, r3, r2
    3cdc:	425a      	negs	r2, r3
    3cde:	4153      	adcs	r3, r2
    3ce0:	602b      	str	r3, [r5, #0]
    3ce2:	e7ed      	b.n	3cc0 <__swhatbuf_r+0x1c>
    3ce4:	2340      	movs	r3, #64	; 0x40
    3ce6:	2000      	movs	r0, #0
    3ce8:	6023      	str	r3, [r4, #0]
    3cea:	b010      	add	sp, #64	; 0x40
    3cec:	bd70      	pop	{r4, r5, r6, pc}
    3cee:	46c0      	nop			; (mov r8, r8)
    3cf0:	ffffe000 	.word	0xffffe000

00003cf4 <__smakebuf_r>:
    3cf4:	b5f7      	push	{r0, r1, r2, r4, r5, r6, r7, lr}
    3cf6:	2602      	movs	r6, #2
    3cf8:	898b      	ldrh	r3, [r1, #12]
    3cfa:	0005      	movs	r5, r0
    3cfc:	000c      	movs	r4, r1
    3cfe:	4233      	tst	r3, r6
    3d00:	d006      	beq.n	3d10 <__smakebuf_r+0x1c>
    3d02:	0023      	movs	r3, r4
    3d04:	3347      	adds	r3, #71	; 0x47
    3d06:	6023      	str	r3, [r4, #0]
    3d08:	6123      	str	r3, [r4, #16]
    3d0a:	2301      	movs	r3, #1
    3d0c:	6163      	str	r3, [r4, #20]
    3d0e:	bdf7      	pop	{r0, r1, r2, r4, r5, r6, r7, pc}
    3d10:	ab01      	add	r3, sp, #4
    3d12:	466a      	mov	r2, sp
    3d14:	f7ff ffc6 	bl	3ca4 <__swhatbuf_r>
    3d18:	9900      	ldr	r1, [sp, #0]
    3d1a:	0007      	movs	r7, r0
    3d1c:	0028      	movs	r0, r5
    3d1e:	f7ff fbd7 	bl	34d0 <_malloc_r>
    3d22:	2800      	cmp	r0, #0
    3d24:	d108      	bne.n	3d38 <__smakebuf_r+0x44>
    3d26:	220c      	movs	r2, #12
    3d28:	5ea3      	ldrsh	r3, [r4, r2]
    3d2a:	059a      	lsls	r2, r3, #22
    3d2c:	d4ef      	bmi.n	3d0e <__smakebuf_r+0x1a>
    3d2e:	2203      	movs	r2, #3
    3d30:	4393      	bics	r3, r2
    3d32:	431e      	orrs	r6, r3
    3d34:	81a6      	strh	r6, [r4, #12]
    3d36:	e7e4      	b.n	3d02 <__smakebuf_r+0xe>
    3d38:	4b0f      	ldr	r3, [pc, #60]	; (3d78 <__smakebuf_r+0x84>)
    3d3a:	62ab      	str	r3, [r5, #40]	; 0x28
    3d3c:	2380      	movs	r3, #128	; 0x80
    3d3e:	89a2      	ldrh	r2, [r4, #12]
    3d40:	6020      	str	r0, [r4, #0]
    3d42:	4313      	orrs	r3, r2
    3d44:	81a3      	strh	r3, [r4, #12]
    3d46:	9b00      	ldr	r3, [sp, #0]
    3d48:	6120      	str	r0, [r4, #16]
    3d4a:	6163      	str	r3, [r4, #20]
    3d4c:	9b01      	ldr	r3, [sp, #4]
    3d4e:	2b00      	cmp	r3, #0
    3d50:	d00d      	beq.n	3d6e <__smakebuf_r+0x7a>
    3d52:	230e      	movs	r3, #14
    3d54:	5ee1      	ldrsh	r1, [r4, r3]
    3d56:	0028      	movs	r0, r5
    3d58:	f000 f896 	bl	3e88 <_isatty_r>
    3d5c:	2800      	cmp	r0, #0
    3d5e:	d006      	beq.n	3d6e <__smakebuf_r+0x7a>
    3d60:	2203      	movs	r2, #3
    3d62:	89a3      	ldrh	r3, [r4, #12]
    3d64:	4393      	bics	r3, r2
    3d66:	001a      	movs	r2, r3
    3d68:	2301      	movs	r3, #1
    3d6a:	4313      	orrs	r3, r2
    3d6c:	81a3      	strh	r3, [r4, #12]
    3d6e:	89a0      	ldrh	r0, [r4, #12]
    3d70:	4338      	orrs	r0, r7
    3d72:	81a0      	strh	r0, [r4, #12]
    3d74:	e7cb      	b.n	3d0e <__smakebuf_r+0x1a>
    3d76:	46c0      	nop			; (mov r8, r8)
    3d78:	00003af5 	.word	0x00003af5

00003d7c <__malloc_lock>:
    3d7c:	4770      	bx	lr

00003d7e <__malloc_unlock>:
    3d7e:	4770      	bx	lr

00003d80 <__sread>:
    3d80:	b570      	push	{r4, r5, r6, lr}
    3d82:	000c      	movs	r4, r1
    3d84:	250e      	movs	r5, #14
    3d86:	5f49      	ldrsh	r1, [r1, r5]
    3d88:	f000 f8a4 	bl	3ed4 <_read_r>
    3d8c:	2800      	cmp	r0, #0
    3d8e:	db03      	blt.n	3d98 <__sread+0x18>
    3d90:	6d63      	ldr	r3, [r4, #84]	; 0x54
    3d92:	181b      	adds	r3, r3, r0
    3d94:	6563      	str	r3, [r4, #84]	; 0x54
    3d96:	bd70      	pop	{r4, r5, r6, pc}
    3d98:	89a3      	ldrh	r3, [r4, #12]
    3d9a:	4a02      	ldr	r2, [pc, #8]	; (3da4 <__sread+0x24>)
    3d9c:	4013      	ands	r3, r2
    3d9e:	81a3      	strh	r3, [r4, #12]
    3da0:	e7f9      	b.n	3d96 <__sread+0x16>
    3da2:	46c0      	nop			; (mov r8, r8)
    3da4:	ffffefff 	.word	0xffffefff

00003da8 <__swrite>:
    3da8:	b5f8      	push	{r3, r4, r5, r6, r7, lr}
    3daa:	001f      	movs	r7, r3
    3dac:	898b      	ldrh	r3, [r1, #12]
    3dae:	0005      	movs	r5, r0
    3db0:	000c      	movs	r4, r1
    3db2:	0016      	movs	r6, r2
    3db4:	05db      	lsls	r3, r3, #23
    3db6:	d505      	bpl.n	3dc4 <__swrite+0x1c>
    3db8:	230e      	movs	r3, #14
    3dba:	5ec9      	ldrsh	r1, [r1, r3]
    3dbc:	2200      	movs	r2, #0
    3dbe:	2302      	movs	r3, #2
    3dc0:	f000 f874 	bl	3eac <_lseek_r>
    3dc4:	89a3      	ldrh	r3, [r4, #12]
    3dc6:	4a05      	ldr	r2, [pc, #20]	; (3ddc <__swrite+0x34>)
    3dc8:	0028      	movs	r0, r5
    3dca:	4013      	ands	r3, r2
    3dcc:	81a3      	strh	r3, [r4, #12]
    3dce:	0032      	movs	r2, r6
    3dd0:	230e      	movs	r3, #14
    3dd2:	5ee1      	ldrsh	r1, [r4, r3]
    3dd4:	003b      	movs	r3, r7
    3dd6:	f000 f81f 	bl	3e18 <_write_r>
    3dda:	bdf8      	pop	{r3, r4, r5, r6, r7, pc}
    3ddc:	ffffefff 	.word	0xffffefff

00003de0 <__sseek>:
    3de0:	b570      	push	{r4, r5, r6, lr}
    3de2:	000c      	movs	r4, r1
    3de4:	250e      	movs	r5, #14
    3de6:	5f49      	ldrsh	r1, [r1, r5]
    3de8:	f000 f860 	bl	3eac <_lseek_r>
    3dec:	89a3      	ldrh	r3, [r4, #12]
    3dee:	1c42      	adds	r2, r0, #1
    3df0:	d103      	bne.n	3dfa <__sseek+0x1a>
    3df2:	4a05      	ldr	r2, [pc, #20]	; (3e08 <__sseek+0x28>)
    3df4:	4013      	ands	r3, r2
    3df6:	81a3      	strh	r3, [r4, #12]
    3df8:	bd70      	pop	{r4, r5, r6, pc}
    3dfa:	2280      	movs	r2, #128	; 0x80
    3dfc:	0152      	lsls	r2, r2, #5
    3dfe:	4313      	orrs	r3, r2
    3e00:	81a3      	strh	r3, [r4, #12]
    3e02:	6560      	str	r0, [r4, #84]	; 0x54
    3e04:	e7f8      	b.n	3df8 <__sseek+0x18>
    3e06:	46c0      	nop			; (mov r8, r8)
    3e08:	ffffefff 	.word	0xffffefff

00003e0c <__sclose>:
    3e0c:	b510      	push	{r4, lr}
    3e0e:	230e      	movs	r3, #14
    3e10:	5ec9      	ldrsh	r1, [r1, r3]
    3e12:	f000 f815 	bl	3e40 <_close_r>
    3e16:	bd10      	pop	{r4, pc}

00003e18 <_write_r>:
    3e18:	b570      	push	{r4, r5, r6, lr}
    3e1a:	0005      	movs	r5, r0
    3e1c:	0008      	movs	r0, r1
    3e1e:	0011      	movs	r1, r2
    3e20:	2200      	movs	r2, #0
    3e22:	4c06      	ldr	r4, [pc, #24]	; (3e3c <_write_r+0x24>)
    3e24:	6022      	str	r2, [r4, #0]
    3e26:	001a      	movs	r2, r3
    3e28:	f7fe fe22 	bl	2a70 <_write>
    3e2c:	1c43      	adds	r3, r0, #1
    3e2e:	d103      	bne.n	3e38 <_write_r+0x20>
    3e30:	6823      	ldr	r3, [r4, #0]
    3e32:	2b00      	cmp	r3, #0
    3e34:	d000      	beq.n	3e38 <_write_r+0x20>
    3e36:	602b      	str	r3, [r5, #0]
    3e38:	bd70      	pop	{r4, r5, r6, pc}
    3e3a:	46c0      	nop			; (mov r8, r8)
    3e3c:	20000614 	.word	0x20000614

00003e40 <_close_r>:
    3e40:	2300      	movs	r3, #0
    3e42:	b570      	push	{r4, r5, r6, lr}
    3e44:	4c06      	ldr	r4, [pc, #24]	; (3e60 <_close_r+0x20>)
    3e46:	0005      	movs	r5, r0
    3e48:	0008      	movs	r0, r1
    3e4a:	6023      	str	r3, [r4, #0]
    3e4c:	f7fe fe4a 	bl	2ae4 <_close>
    3e50:	1c43      	adds	r3, r0, #1
    3e52:	d103      	bne.n	3e5c <_close_r+0x1c>
    3e54:	6823      	ldr	r3, [r4, #0]
    3e56:	2b00      	cmp	r3, #0
    3e58:	d000      	beq.n	3e5c <_close_r+0x1c>
    3e5a:	602b      	str	r3, [r5, #0]
    3e5c:	bd70      	pop	{r4, r5, r6, pc}
    3e5e:	46c0      	nop			; (mov r8, r8)
    3e60:	20000614 	.word	0x20000614

00003e64 <_fstat_r>:
    3e64:	2300      	movs	r3, #0
    3e66:	b570      	push	{r4, r5, r6, lr}
    3e68:	4c06      	ldr	r4, [pc, #24]	; (3e84 <_fstat_r+0x20>)
    3e6a:	0005      	movs	r5, r0
    3e6c:	0008      	movs	r0, r1
    3e6e:	0011      	movs	r1, r2
    3e70:	6023      	str	r3, [r4, #0]
    3e72:	f7fe fe3a 	bl	2aea <_fstat>
    3e76:	1c43      	adds	r3, r0, #1
    3e78:	d103      	bne.n	3e82 <_fstat_r+0x1e>
    3e7a:	6823      	ldr	r3, [r4, #0]
    3e7c:	2b00      	cmp	r3, #0
    3e7e:	d000      	beq.n	3e82 <_fstat_r+0x1e>
    3e80:	602b      	str	r3, [r5, #0]
    3e82:	bd70      	pop	{r4, r5, r6, pc}
    3e84:	20000614 	.word	0x20000614

00003e88 <_isatty_r>:
    3e88:	2300      	movs	r3, #0
    3e8a:	b570      	push	{r4, r5, r6, lr}
    3e8c:	4c06      	ldr	r4, [pc, #24]	; (3ea8 <_isatty_r+0x20>)
    3e8e:	0005      	movs	r5, r0
    3e90:	0008      	movs	r0, r1
    3e92:	6023      	str	r3, [r4, #0]
    3e94:	f7fe fe2e 	bl	2af4 <_isatty>
    3e98:	1c43      	adds	r3, r0, #1
    3e9a:	d103      	bne.n	3ea4 <_isatty_r+0x1c>
    3e9c:	6823      	ldr	r3, [r4, #0]
    3e9e:	2b00      	cmp	r3, #0
    3ea0:	d000      	beq.n	3ea4 <_isatty_r+0x1c>
    3ea2:	602b      	str	r3, [r5, #0]
    3ea4:	bd70      	pop	{r4, r5, r6, pc}
    3ea6:	46c0      	nop			; (mov r8, r8)
    3ea8:	20000614 	.word	0x20000614

00003eac <_lseek_r>:
    3eac:	b570      	push	{r4, r5, r6, lr}
    3eae:	0005      	movs	r5, r0
    3eb0:	0008      	movs	r0, r1
    3eb2:	0011      	movs	r1, r2
    3eb4:	2200      	movs	r2, #0
    3eb6:	4c06      	ldr	r4, [pc, #24]	; (3ed0 <_lseek_r+0x24>)
    3eb8:	6022      	str	r2, [r4, #0]
    3eba:	001a      	movs	r2, r3
    3ebc:	f7fe fe1c 	bl	2af8 <_lseek>
    3ec0:	1c43      	adds	r3, r0, #1
    3ec2:	d103      	bne.n	3ecc <_lseek_r+0x20>
    3ec4:	6823      	ldr	r3, [r4, #0]
    3ec6:	2b00      	cmp	r3, #0
    3ec8:	d000      	beq.n	3ecc <_lseek_r+0x20>
    3eca:	602b      	str	r3, [r5, #0]
    3ecc:	bd70      	pop	{r4, r5, r6, pc}
    3ece:	46c0      	nop			; (mov r8, r8)
    3ed0:	20000614 	.word	0x20000614

00003ed4 <_read_r>:
    3ed4:	b570      	push	{r4, r5, r6, lr}
    3ed6:	0005      	movs	r5, r0
    3ed8:	0008      	movs	r0, r1
    3eda:	0011      	movs	r1, r2
    3edc:	2200      	movs	r2, #0
    3ede:	4c06      	ldr	r4, [pc, #24]	; (3ef8 <_read_r+0x24>)
    3ee0:	6022      	str	r2, [r4, #0]
    3ee2:	001a      	movs	r2, r3
    3ee4:	f7fe fda2 	bl	2a2c <_read>
    3ee8:	1c43      	adds	r3, r0, #1
    3eea:	d103      	bne.n	3ef4 <_read_r+0x20>
    3eec:	6823      	ldr	r3, [r4, #0]
    3eee:	2b00      	cmp	r3, #0
    3ef0:	d000      	beq.n	3ef4 <_read_r+0x20>
    3ef2:	602b      	str	r3, [r5, #0]
    3ef4:	bd70      	pop	{r4, r5, r6, pc}
    3ef6:	46c0      	nop			; (mov r8, r8)
    3ef8:	20000614 	.word	0x20000614
    3efc:	000005a2 	.word	0x000005a2
    3f00:	000005a2 	.word	0x000005a2
    3f04:	000005d2 	.word	0x000005d2
    3f08:	00000554 	.word	0x00000554
    3f0c:	00000578 	.word	0x00000578
    3f10:	00000586 	.word	0x00000586
    3f14:	000005b8 	.word	0x000005b8
    3f18:	000005b8 	.word	0x000005b8
    3f1c:	00000600 	.word	0x00000600
    3f20:	00000538 	.word	0x00000538
    3f24:	0000061e 	.word	0x0000061e
    3f28:	0000061e 	.word	0x0000061e
    3f2c:	0000061e 	.word	0x0000061e
    3f30:	0000061e 	.word	0x0000061e
    3f34:	00000594 	.word	0x00000594
    3f38:	c9c3      	.short	0xc9c3
    3f3a:	cac4      	.short	0xcac4

00003f3c <crc7_syndrome_table>:
    3f3c:	0900 1b12 2d24 3f36 4148 535a 656c 777e     ....$-6?HAZSle~w
    3f4c:	1019 020b 343d 262f 5851 4a43 7c75 6e67     ....=4/&QXCJu|gn
    3f5c:	3b32 2920 1f16 0d04 737a 6168 575e 454c     2; )....zsha^WLE
    3f6c:	222b 3039 060f 141d 6a63 7871 4e47 5c55     +"90....cjqxGNU\
    3f7c:	6d64 7f76 4940 5b52 252c 373e 0108 131a     dmv.@IR[,%>7....
    3f8c:	747d 666f 5059 424b 3c35 2e27 1811 0a03     }tofYPKB5<'.....
    3f9c:	5f56 4d44 7b72 6960 171e 050c 333a 2128     V_DMr{`i....:3(!
    3fac:	464f 545d 626b 7079 0e07 1c15 2a23 3831     OF]Tkbyp....#*18
    3fbc:	4841 5a53 6c65 7e77 0009 121b 242d 363f     AHSZelw~....-$?6
    3fcc:	5158 434a 757c 676e 1910 0b02 3d34 2f26     XQJC|ung....4=&/
    3fdc:	7a73 6861 5e57 4c45 323b 2029 161f 040d     szahW^EL;2) ....
    3fec:	636a 7178 474e 555c 2b22 3930 0f06 1d14     jcxqNG\U"+09....
    3ffc:	2c25 3e37 0801 1a13 646d 767f 4049 525b     %,7>....md.vI@[R
    400c:	353c 272e 1118 030a 7d74 6f66 5950 4b42     <5.'....t}foPYBK
    401c:	1e17 0c05 3a33 2821 565f 444d 727b 6069     ....3:!(_VMD{ri`
    402c:	070e 151c 232a 3138 4f46 5d54 6b62 7970     ....*#81FOT]bkpy
    403c:	0000 4200 0400 4200 0800 4200 0c00 4200     ...B...B...B...B
    404c:	1000 4200 0400 4300 21b6 0000 21b2 0000     ...B...C.!...!..
    405c:	21b2 0000 221c 0000 221c 0000 21cc 0000     .!..."..."...!..
    406c:	21bc 0000 21d2 0000 220a 0000 23c0 0000     .!...!..."...#..
    407c:	23a0 0000 23a0 0000 244c 0000 23b2 0000     .#...#..L$...#..
    408c:	23ce 0000 23a4 0000 23dc 0000 2430 0000     .#...#...#..0$..
    409c:	2488 0000 24ca 0000 24ca 0000 24ca 0000     .$...$...$...$..
    40ac:	247a 0000 2496 0000 246c 0000 24a4 0000     z$...$..l$...$..
    40bc:	24ba 0000 2d5e 0000 2ddc 0000 2e66 0000     .$..^-...-..f...
    40cc:	2e84 0000 2f42 0000 2fa4 0000 30fc 0000     ....B/.../...0..
    40dc:	2fc8 0000 2fec 0000 3010 0000 30b0 0000     ./.../...0...0..
    40ec:	311e 0000 314a 0000 3178 0000 30e4 0000     .1..J1..x1...0..
    40fc:	31a6 0000 6146 6c69 6465 7420 206f 7570     .1..Failed to pu
    410c:	2074 6874 2065 6957 6946 4320 6968 2070     t the WiFi Chip 
    411c:	6e69 6420 776f 6c6e 616f 2064 6f6d 6564     in download mode
    412c:	0a21 0000                                   !...

00004130 <_global_impure_ptr>:
    4130:	0010 2000                                   ... 

00004134 <__sf_fake_stderr>:
	...

00004154 <__sf_fake_stdin>:
	...

00004174 <__sf_fake_stdout>:
	...

00004194 <_init>:
    4194:	b5f8      	push	{r3, r4, r5, r6, r7, lr}
    4196:	46c0      	nop			; (mov r8, r8)
    4198:	bcf8      	pop	{r3, r4, r5, r6, r7}
    419a:	bc08      	pop	{r3}
    419c:	469e      	mov	lr, r3
    419e:	4770      	bx	lr

000041a0 <__init_array_start>:
    41a0:	000000dd 	.word	0x000000dd

000041a4 <_fini>:
    41a4:	b5f8      	push	{r3, r4, r5, r6, r7, lr}
    41a6:	46c0      	nop			; (mov r8, r8)
    41a8:	bcf8      	pop	{r3, r4, r5, r6, r7}
    41aa:	bc08      	pop	{r3}
    41ac:	469e      	mov	lr, r3
    41ae:	4770      	bx	lr

000041b0 <__fini_array_start>:
    41b0:	000000b5 	.word	0x000000b5
